; ModuleID = 'hexxagonboard.cpp'
target datalayout = "e-m:e-i64:64-f80:128-n8:16:32:64-S128"
target triple = "x86_64-unknown-linux-gnu"

%"class.std::ios_base::Init" = type { i8 }
%class.BitBoard64 = type { i32, i32 }
%"class.std::basic_ostream" = type { i32 (...)**, %"class.std::basic_ios" }
%"class.std::basic_ios" = type { %"class.std::ios_base", %"class.std::basic_ostream"*, i8, i8, %"class.std::basic_streambuf"*, %"class.std::ctype"*, %"class.std::num_put"*, %"class.std::num_get"* }
%"class.std::ios_base" = type { i32 (...)**, i64, i64, i32, i32, i32, %"struct.std::ios_base::_Callback_list"*, %"struct.std::ios_base::_Words", [8 x %"struct.std::ios_base::_Words"], i32, %"struct.std::ios_base::_Words"*, %"class.std::locale" }
%"struct.std::ios_base::_Callback_list" = type { %"struct.std::ios_base::_Callback_list"*, void (i32, %"class.std::ios_base"*, i32)*, i32, i32 }
%"struct.std::ios_base::_Words" = type { i8*, i64 }
%"class.std::locale" = type { %"class.std::locale::_Impl"* }
%"class.std::locale::_Impl" = type { i32, %"class.std::locale::facet"**, i64, %"class.std::locale::facet"**, i8** }
%"class.std::locale::facet" = type <{ i32 (...)**, i32, [4 x i8] }>
%"class.std::basic_streambuf" = type { i32 (...)**, i8*, i8*, i8*, i8*, i8*, i8*, %"class.std::locale" }
%"class.std::ctype" = type <{ %"class.std::locale::facet.base", [4 x i8], %struct.__locale_struct*, i8, [7 x i8], i32*, i32*, i16*, i8, [256 x i8], [256 x i8], i8, [6 x i8] }>
%"class.std::locale::facet.base" = type <{ i32 (...)**, i32 }>
%struct.__locale_struct = type { [13 x %struct.__locale_data*], i16*, i32*, i32*, [13 x i8*] }
%struct.__locale_data = type opaque
%"class.std::num_put" = type { %"class.std::locale::facet.base", [4 x i8] }
%"class.std::num_get" = type { %"class.std::locale::facet.base", [4 x i8] }
%class.HexxagonBoard = type { %class.BitBoard64, %class.BitBoard64 }
%class.HexxagonMove = type { i8, i8, i32 }
%class.HexxagonMoveList = type { i32, %class.HexxagonMove* }
%struct._IO_FILE = type { i32, i8*, i8*, i8*, i8*, i8*, i8*, i8*, i8*, i8*, i8*, i8*, %struct._IO_marker*, %struct._IO_FILE*, i32, i32, i64, i16, i8, [1 x i8], i8*, i64, i8*, i8*, i8*, i8*, i64, i32, [20 x i8] }
%struct._IO_marker = type { %struct._IO_marker*, %struct._IO_FILE*, i32 }

@_ZStL8__ioinit = internal global %"class.std::ios_base::Init" zeroinitializer, align 1
@__dso_handle = external global i8
@clone_lookups = global %class.BitBoard64* null, align 8
@jump_lookups = global %class.BitBoard64* null, align 8
@.str = private unnamed_addr constant [17 x i8] c"Out of memory !\0A\00", align 1
@.str1 = private unnamed_addr constant [16 x i8] c"No more moves.\0A\00", align 1
@_ZSt4cout = external global %"class.std::basic_ostream"
@.str2 = private unnamed_addr constant [28 x i8] c"         A B C D E F G H I\0A\00", align 1
@.str3 = private unnamed_addr constant [27 x i8] c"        / / / / / / / / /\0A\00", align 1
@.str4 = private unnamed_addr constant [3 x i8] c"- \00", align 1
@.str5 = private unnamed_addr constant [2 x i8] c" \00", align 1
@.str6 = private unnamed_addr constant [3 x i8] c"x \00", align 1
@.str7 = private unnamed_addr constant [3 x i8] c"o \00", align 1
@.str8 = private unnamed_addr constant [3 x i8] c". \00", align 1
@.str9 = private unnamed_addr constant [2 x i8] c"\0A\00", align 1
@.str10 = private unnamed_addr constant [12 x i8] c"\0ABricks: x \00", align 1
@.str11 = private unnamed_addr constant [5 x i8] c", o \00", align 1
@.str12 = private unnamed_addr constant [9 x i8] c". Empty \00", align 1
@.str13 = private unnamed_addr constant [3 x i8] c".\0A\00", align 1
@.str14 = private unnamed_addr constant [15 x i8] c"Next to move: \00", align 1
@.str15 = private unnamed_addr constant [2 x i8] c"x\00", align 1
@.str16 = private unnamed_addr constant [2 x i8] c"o\00", align 1
@.str17 = private unnamed_addr constant [13 x i8] c", Game over.\00", align 1
@.str18 = private unnamed_addr constant [1 x i8] zeroinitializer, align 1
@__llvm_gcov_ctr = internal global [2 x i64] zeroinitializer
@__llvm_gcov_ctr19 = internal global [48 x i64] zeroinitializer
@__llvm_gcov_ctr20 = internal global [47 x i64] zeroinitializer
@__llvm_gcda_edge_table = internal unnamed_addr constant [2 x i64*] [i64* getelementptr inbounds ([47 x i64]* @__llvm_gcov_ctr20, i64 0, i64 2), i64* getelementptr inbounds ([47 x i64]* @__llvm_gcov_ctr20, i64 0, i64 3)]
@__llvm_gcov_global_state_pred = internal unnamed_addr global i32 -1
@__llvm_gcov_ctr21 = internal global [47 x i64] zeroinitializer
@__llvm_gcda_edge_table22 = internal unnamed_addr constant [2 x i64*] [i64* getelementptr inbounds ([47 x i64]* @__llvm_gcov_ctr21, i64 0, i64 2), i64* getelementptr inbounds ([47 x i64]* @__llvm_gcov_ctr21, i64 0, i64 3)]
@__llvm_gcov_global_state_pred23 = internal unnamed_addr global i32 -1
@__llvm_gcov_ctr24 = internal global [2 x i64] zeroinitializer
@__llvm_gcov_ctr25 = internal global [2 x i64] zeroinitializer
@__llvm_gcov_ctr26 = internal global [2 x i64] zeroinitializer
@__llvm_gcov_ctr27 = internal global [26 x i64] zeroinitializer
@__llvm_gcov_ctr28 = internal global [36 x i64] zeroinitializer
@__llvm_gcov_ctr29 = internal global [9 x i64] zeroinitializer
@__llvm_gcov_ctr30 = internal global [5 x i64] zeroinitializer
@__llvm_gcov_ctr31 = internal global [16 x i64] zeroinitializer
@__llvm_gcov_ctr32 = internal global [39 x i64] zeroinitializer
@__llvm_gcda_edge_table33 = internal unnamed_addr constant [8 x i64*] [i64* getelementptr inbounds ([39 x i64]* @__llvm_gcov_ctr32, i64 0, i64 1), i64* null, i64* getelementptr inbounds ([39 x i64]* @__llvm_gcov_ctr32, i64 0, i64 2), i64* null, i64* null, i64* getelementptr inbounds ([39 x i64]* @__llvm_gcov_ctr32, i64 0, i64 33), i64* null, i64* getelementptr inbounds ([39 x i64]* @__llvm_gcov_ctr32, i64 0, i64 34)]
@__llvm_gcov_global_state_pred34 = internal unnamed_addr global i32 -1
@__llvm_gcov_ctr35 = internal global [12 x i64] zeroinitializer
@__llvm_gcda_edge_table36 = internal unnamed_addr constant [2 x i64*] [i64* getelementptr inbounds ([12 x i64]* @__llvm_gcov_ctr35, i64 0, i64 6), i64* getelementptr inbounds ([12 x i64]* @__llvm_gcov_ctr35, i64 0, i64 7)]
@__llvm_gcov_global_state_pred37 = internal unnamed_addr global i32 -1
@__llvm_gcov_ctr38 = internal global [12 x i64] zeroinitializer
@__llvm_gcda_edge_table39 = internal unnamed_addr constant [2 x i64*] [i64* getelementptr inbounds ([12 x i64]* @__llvm_gcov_ctr38, i64 0, i64 6), i64* getelementptr inbounds ([12 x i64]* @__llvm_gcov_ctr38, i64 0, i64 7)]
@__llvm_gcov_global_state_pred40 = internal unnamed_addr global i32 -1
@__llvm_gcov_ctr41 = internal global [8 x i64] zeroinitializer
@__llvm_gcov_ctr42 = internal global [8 x i64] zeroinitializer
@__llvm_gcov_ctr43 = internal global [55 x i64] zeroinitializer
@__llvm_gcov_ctr44 = internal global [5 x i64] zeroinitializer
@__llvm_gcov_ctr45 = internal global [2 x i64] zeroinitializer
@__llvm_gcov_ctr46 = internal global [2 x i64] zeroinitializer
@__llvm_gcov_ctr47 = internal global [8 x i64] zeroinitializer
@__llvm_gcda_edge_table48 = internal unnamed_addr constant [2 x i64*] [i64* getelementptr inbounds ([8 x i64]* @__llvm_gcov_ctr47, i64 0, i64 2), i64* getelementptr inbounds ([8 x i64]* @__llvm_gcov_ctr47, i64 0, i64 3)]
@__llvm_gcov_global_state_pred49 = internal unnamed_addr global i32 -1
@__llvm_gcov_ctr50 = internal global [2 x i64] zeroinitializer
@__llvm_gcov_ctr51 = internal global [2 x i64] zeroinitializer
@__llvm_gcov_ctr52 = internal global [2 x i64] zeroinitializer
@0 = private unnamed_addr constant [5 x i8] c"*204\00"
@1 = private unnamed_addr constant [95 x i8] c"/home/vanderson/dev/repos/GEOS1.0/GEOS/experiments/benchmarks/src/.hexxagon/hexxagonboard.gcda\00"
@2 = private unnamed_addr constant [22 x i8] c"__cxx_global_var_init\00"
@3 = private unnamed_addr constant [23 x i8] c"_Z16getHexxagonIndexii\00"
@4 = private unnamed_addr constant [22 x i8] c"_Z16initCloneLookupsv\00"
@5 = private unnamed_addr constant [21 x i8] c"_Z15initJumpLookupsv\00"
@6 = private unnamed_addr constant [26 x i8] c"_ZN13HexxagonBoardC2ERKS_\00"
@7 = private unnamed_addr constant [26 x i8] c"_ZN13HexxagonBoardaSERKS_\00"
@8 = private unnamed_addr constant [26 x i8] c"_ZN13HexxagonBoard4initEv\00"
@9 = private unnamed_addr constant [34 x i8] c"_ZN13HexxagonBoard11countBricksEi\00"
@10 = private unnamed_addr constant [30 x i8] c"_ZN13HexxagonBoard8evaluateEv\00"
@11 = private unnamed_addr constant [34 x i8] c"_ZN13HexxagonBoard11getHexxagonEi\00"
@12 = private unnamed_addr constant [45 x i8] c"_ZN13HexxagonBoard9applyMoveER12HexxagonMove\00"
@13 = private unnamed_addr constant [48 x i8] c"_ZN13HexxagonBoard11isMoveValidER12HexxagonMove\00"
@14 = private unnamed_addr constant [39 x i8] c"_ZN13HexxagonBoard16generateMoveListEv\00"
@15 = private unnamed_addr constant [31 x i8] c"_ZN13HexxagonBoard9endOfGameEv\00"
@16 = private unnamed_addr constant [41 x i8] c"_ZN13HexxagonBoard12computerMoveEiPFvvEi\00"
@17 = private unnamed_addr constant [44 x i8] c"_ZN13HexxagonBoard12readFromFileEP8_IO_FILE\00"
@18 = private unnamed_addr constant [43 x i8] c"_ZN13HexxagonBoard11writeToFileEP8_IO_FILE\00"
@19 = private unnamed_addr constant [39 x i8] c"_ZN13HexxagonBoard16displayBoardTextEi\00"
@20 = private unnamed_addr constant [26 x i8] c"_ZN16HexxagonMoveListD2Ev\00"
@21 = private unnamed_addr constant [23 x i8] c"_ZN12HexxagonMoveC2Eii\00"
@22 = private unnamed_addr constant [22 x i8] c"_ZN12HexxagonMoveC2Ei\00"
@23 = private unnamed_addr constant [26 x i8] c"_ZN16HexxagonMoveListC2Ev\00"
@24 = private unnamed_addr constant [22 x i8] c"_ZN12HexxagonMoveC2Ev\00"
@25 = private unnamed_addr constant [21 x i8] c"_ZN10BitBoard64C2Ejj\00"
@26 = private unnamed_addr constant [20 x i8] c"_ZN10BitBoard64C2Ev\00"
@llvm.global_ctors = appending global [2 x { i32, void ()*, i8* }] [{ i32, void ()*, i8* } { i32 65535, void ()* @_GLOBAL__sub_I_hexxagonboard.cpp, i8* null }, { i32, void ()*, i8* } { i32 0, void ()* @__llvm_gcov_init, i8* null }]

@_ZN13HexxagonBoardC1ERKS_ = alias void (%class.HexxagonBoard*, %class.HexxagonBoard*)* @_ZN13HexxagonBoardC2ERKS_

define internal void @__cxx_global_var_init() section ".text.startup" {
entry:
  %0 = load i64* getelementptr inbounds ([2 x i64]* @__llvm_gcov_ctr, i64 0, i64 0)
  %1 = add i64 %0, 1
  store i64 %1, i64* getelementptr inbounds ([2 x i64]* @__llvm_gcov_ctr, i64 0, i64 0)
  br label %2

; <label>:2                                       ; preds = %entry
  %3 = load i64* getelementptr inbounds ([2 x i64]* @__llvm_gcov_ctr, i64 0, i64 1), !dbg !603
  %4 = add i64 %3, 1, !dbg !603
  store i64 %4, i64* getelementptr inbounds ([2 x i64]* @__llvm_gcov_ctr, i64 0, i64 1), !dbg !603
  call void @_ZNSt8ios_base4InitC1Ev(%"class.std::ios_base::Init"* @_ZStL8__ioinit), !dbg !603
  %5 = call i32 @__cxa_atexit(void (i8*)* bitcast (void (%"class.std::ios_base::Init"*)* @_ZNSt8ios_base4InitD1Ev to void (i8*)*), i8* getelementptr inbounds (%"class.std::ios_base::Init"* @_ZStL8__ioinit, i32 0, i32 0), i8* @__dso_handle) #1, !dbg !603
  ret void, !dbg !603
}

declare void @_ZNSt8ios_base4InitC1Ev(%"class.std::ios_base::Init"*) #0

declare void @_ZNSt8ios_base4InitD1Ev(%"class.std::ios_base::Init"*) #0

; Function Attrs: nounwind
declare i32 @__cxa_atexit(void (i8*)*, i8*, i8*) #1

; Function Attrs: nounwind uwtable
define i32 @_Z16getHexxagonIndexii(i32 %x, i32 %y) #2 {
entry:
  %0 = load i64* getelementptr inbounds ([48 x i64]* @__llvm_gcov_ctr19, i64 0, i64 0)
  %1 = add i64 %0, 1
  store i64 %1, i64* getelementptr inbounds ([48 x i64]* @__llvm_gcov_ctr19, i64 0, i64 0)
  %retval = alloca i32, align 4
  %x.addr = alloca i32, align 4
  %y.addr = alloca i32, align 4
  %no = alloca i32, align 4
  br label %2

; <label>:2                                       ; preds = %entry
  store i32 %x, i32* %x.addr, align 4
  call void @llvm.dbg.declare(metadata i32* %x.addr, metadata !604, metadata !605), !dbg !606
  store i32 %y, i32* %y.addr, align 4
  call void @llvm.dbg.declare(metadata i32* %y.addr, metadata !607, metadata !605), !dbg !608
  call void @llvm.dbg.declare(metadata i32* %no, metadata !609, metadata !605), !dbg !610
  %3 = load i32* %x.addr, align 4, !dbg !611
  %cmp = icmp sgt i32 %3, 0, !dbg !611
  %4 = select i1 %cmp, i64 1, i64 2, !dbg !613
  %5 = getelementptr inbounds [48 x i64]* @__llvm_gcov_ctr19, i64 0, i64 %4, !dbg !613
  %6 = load i64* %5, !dbg !613
  %7 = add i64 %6, 1, !dbg !613
  store i64 %7, i64* %5, !dbg !613
  br i1 %cmp, label %land.lhs.true, label %if.end52, !dbg !613

land.lhs.true:                                    ; preds = %2
  %8 = load i32* %x.addr, align 4, !dbg !614
  %cmp1 = icmp slt i32 %8, 10, !dbg !614
  %9 = select i1 %cmp1, i64 3, i64 4, !dbg !613
  %10 = getelementptr inbounds [48 x i64]* @__llvm_gcov_ctr19, i64 0, i64 %9, !dbg !613
  %11 = load i64* %10, !dbg !613
  %12 = add i64 %11, 1, !dbg !613
  store i64 %12, i64* %10, !dbg !613
  br i1 %cmp1, label %land.lhs.true2, label %if.end52, !dbg !613

land.lhs.true2:                                   ; preds = %land.lhs.true
  %13 = load i32* %y.addr, align 4, !dbg !616
  %cmp3 = icmp sgt i32 %13, 0, !dbg !616
  %14 = select i1 %cmp3, i64 5, i64 6, !dbg !613
  %15 = getelementptr inbounds [48 x i64]* @__llvm_gcov_ctr19, i64 0, i64 %14, !dbg !613
  %16 = load i64* %15, !dbg !613
  %17 = add i64 %16, 1, !dbg !613
  store i64 %17, i64* %15, !dbg !613
  br i1 %cmp3, label %land.lhs.true4, label %if.end52, !dbg !613

land.lhs.true4:                                   ; preds = %land.lhs.true2
  %18 = load i32* %y.addr, align 4, !dbg !618
  %cmp5 = icmp slt i32 %18, 10, !dbg !618
  %19 = select i1 %cmp5, i64 7, i64 8, !dbg !613
  %20 = getelementptr inbounds [48 x i64]* @__llvm_gcov_ctr19, i64 0, i64 %19, !dbg !613
  %21 = load i64* %20, !dbg !613
  %22 = add i64 %21, 1, !dbg !613
  store i64 %22, i64* %20, !dbg !613
  br i1 %cmp5, label %if.then, label %if.end52, !dbg !613

if.then:                                          ; preds = %land.lhs.true4
  %23 = load i32* %y.addr, align 4, !dbg !620
  %cmp6 = icmp slt i32 %23, 5, !dbg !620
  %24 = select i1 %cmp6, i64 9, i64 10, !dbg !623
  %25 = getelementptr inbounds [48 x i64]* @__llvm_gcov_ctr19, i64 0, i64 %24, !dbg !623
  %26 = load i64* %25, !dbg !623
  %27 = add i64 %26, 1, !dbg !623
  store i64 %27, i64* %25, !dbg !623
  br i1 %cmp6, label %if.then7, label %if.end11, !dbg !623

if.then7:                                         ; preds = %if.then
  %28 = load i32* %x.addr, align 4, !dbg !624
  %29 = load i32* %y.addr, align 4, !dbg !626
  %sub = sub nsw i32 5, %29, !dbg !627
  %sub8 = sub nsw i32 9, %sub, !dbg !628
  %cmp9 = icmp sgt i32 %28, %sub8, !dbg !624
  %30 = select i1 %cmp9, i64 11, i64 12, !dbg !629
  %31 = getelementptr inbounds [48 x i64]* @__llvm_gcov_ctr19, i64 0, i64 %30, !dbg !629
  %32 = load i64* %31, !dbg !629
  %33 = add i64 %32, 1, !dbg !629
  store i64 %33, i64* %31, !dbg !629
  br i1 %cmp9, label %if.then10, label %if.end, !dbg !629

if.then10:                                        ; preds = %if.then7
  %34 = load i64* getelementptr inbounds ([48 x i64]* @__llvm_gcov_ctr19, i64 0, i64 13), !dbg !630
  %35 = add i64 %34, 1, !dbg !630
  store i64 %35, i64* getelementptr inbounds ([48 x i64]* @__llvm_gcov_ctr19, i64 0, i64 13), !dbg !630
  store i32 -1, i32* %retval, !dbg !630
  br label %return, !dbg !630

if.end:                                           ; preds = %if.then7
  %36 = load i64* getelementptr inbounds ([48 x i64]* @__llvm_gcov_ctr19, i64 0, i64 14), !dbg !631
  %37 = add i64 %36, 1, !dbg !631
  store i64 %37, i64* getelementptr inbounds ([48 x i64]* @__llvm_gcov_ctr19, i64 0, i64 14), !dbg !631
  br label %if.end11, !dbg !631

if.end11:                                         ; preds = %if.end, %if.then
  %38 = load i32* %y.addr, align 4, !dbg !633
  %cmp12 = icmp sgt i32 %38, 5, !dbg !633
  %39 = select i1 %cmp12, i64 15, i64 16, !dbg !635
  %40 = getelementptr inbounds [48 x i64]* @__llvm_gcov_ctr19, i64 0, i64 %39, !dbg !635
  %41 = load i64* %40, !dbg !635
  %42 = add i64 %41, 1, !dbg !635
  store i64 %42, i64* %40, !dbg !635
  br i1 %cmp12, label %if.then13, label %if.end18, !dbg !635

if.then13:                                        ; preds = %if.end11
  %43 = load i32* %x.addr, align 4, !dbg !636
  %44 = load i32* %y.addr, align 4, !dbg !638
  %sub14 = sub nsw i32 %44, 5, !dbg !638
  %cmp15 = icmp sle i32 %43, %sub14, !dbg !636
  %45 = select i1 %cmp15, i64 17, i64 18, !dbg !639
  %46 = getelementptr inbounds [48 x i64]* @__llvm_gcov_ctr19, i64 0, i64 %45, !dbg !639
  %47 = load i64* %46, !dbg !639
  %48 = add i64 %47, 1, !dbg !639
  store i64 %48, i64* %46, !dbg !639
  br i1 %cmp15, label %if.then16, label %if.end17, !dbg !639

if.then16:                                        ; preds = %if.then13
  %49 = load i64* getelementptr inbounds ([48 x i64]* @__llvm_gcov_ctr19, i64 0, i64 19), !dbg !640
  %50 = add i64 %49, 1, !dbg !640
  store i64 %50, i64* getelementptr inbounds ([48 x i64]* @__llvm_gcov_ctr19, i64 0, i64 19), !dbg !640
  store i32 -1, i32* %retval, !dbg !640
  br label %return, !dbg !640

if.end17:                                         ; preds = %if.then13
  %51 = load i64* getelementptr inbounds ([48 x i64]* @__llvm_gcov_ctr19, i64 0, i64 20), !dbg !641
  %52 = add i64 %51, 1, !dbg !641
  store i64 %52, i64* getelementptr inbounds ([48 x i64]* @__llvm_gcov_ctr19, i64 0, i64 20), !dbg !641
  br label %if.end18, !dbg !641

if.end18:                                         ; preds = %if.end17, %if.end11
  %53 = load i32* %x.addr, align 4, !dbg !643
  %54 = load i32* %y.addr, align 4, !dbg !644
  %mul = mul nsw i32 %54, 9, !dbg !644
  %add = add nsw i32 %53, %mul, !dbg !643
  %sub19 = sub nsw i32 %add, 10, !dbg !643
  store i32 %sub19, i32* %no, align 4, !dbg !645
  %55 = load i32* %y.addr, align 4, !dbg !646
  %cmp20 = icmp sgt i32 %55, 1, !dbg !646
  %56 = select i1 %cmp20, i64 21, i64 22, !dbg !648
  %57 = getelementptr inbounds [48 x i64]* @__llvm_gcov_ctr19, i64 0, i64 %56, !dbg !648
  %58 = load i64* %57, !dbg !648
  %59 = add i64 %58, 1, !dbg !648
  store i64 %59, i64* %57, !dbg !648
  br i1 %cmp20, label %if.then21, label %if.end23, !dbg !648

if.then21:                                        ; preds = %if.end18
  %60 = load i64* getelementptr inbounds ([48 x i64]* @__llvm_gcov_ctr19, i64 0, i64 23), !dbg !649
  %61 = add i64 %60, 1, !dbg !649
  store i64 %61, i64* getelementptr inbounds ([48 x i64]* @__llvm_gcov_ctr19, i64 0, i64 23), !dbg !649
  %62 = load i32* %no, align 4, !dbg !649
  %sub22 = sub nsw i32 %62, 4, !dbg !649
  store i32 %sub22, i32* %no, align 4, !dbg !649
  br label %if.end23, !dbg !649

if.end23:                                         ; preds = %if.then21, %if.end18
  %63 = load i32* %y.addr, align 4, !dbg !651
  %cmp24 = icmp sgt i32 %63, 2, !dbg !651
  %64 = select i1 %cmp24, i64 24, i64 25, !dbg !653
  %65 = getelementptr inbounds [48 x i64]* @__llvm_gcov_ctr19, i64 0, i64 %64, !dbg !653
  %66 = load i64* %65, !dbg !653
  %67 = add i64 %66, 1, !dbg !653
  store i64 %67, i64* %65, !dbg !653
  br i1 %cmp24, label %if.then25, label %if.end27, !dbg !653

if.then25:                                        ; preds = %if.end23
  %68 = load i64* getelementptr inbounds ([48 x i64]* @__llvm_gcov_ctr19, i64 0, i64 26), !dbg !654
  %69 = add i64 %68, 1, !dbg !654
  store i64 %69, i64* getelementptr inbounds ([48 x i64]* @__llvm_gcov_ctr19, i64 0, i64 26), !dbg !654
  %70 = load i32* %no, align 4, !dbg !654
  %sub26 = sub nsw i32 %70, 3, !dbg !654
  store i32 %sub26, i32* %no, align 4, !dbg !654
  br label %if.end27, !dbg !654

if.end27:                                         ; preds = %if.then25, %if.end23
  %71 = load i32* %y.addr, align 4, !dbg !656
  %cmp28 = icmp sgt i32 %71, 3, !dbg !656
  %72 = select i1 %cmp28, i64 27, i64 28, !dbg !658
  %73 = getelementptr inbounds [48 x i64]* @__llvm_gcov_ctr19, i64 0, i64 %72, !dbg !658
  %74 = load i64* %73, !dbg !658
  %75 = add i64 %74, 1, !dbg !658
  store i64 %75, i64* %73, !dbg !658
  br i1 %cmp28, label %if.then29, label %if.end31, !dbg !658

if.then29:                                        ; preds = %if.end27
  %76 = load i64* getelementptr inbounds ([48 x i64]* @__llvm_gcov_ctr19, i64 0, i64 29), !dbg !659
  %77 = add i64 %76, 1, !dbg !659
  store i64 %77, i64* getelementptr inbounds ([48 x i64]* @__llvm_gcov_ctr19, i64 0, i64 29), !dbg !659
  %78 = load i32* %no, align 4, !dbg !659
  %sub30 = sub nsw i32 %78, 2, !dbg !659
  store i32 %sub30, i32* %no, align 4, !dbg !659
  br label %if.end31, !dbg !659

if.end31:                                         ; preds = %if.then29, %if.end27
  %79 = load i32* %y.addr, align 4, !dbg !661
  %cmp32 = icmp sgt i32 %79, 4, !dbg !661
  %80 = select i1 %cmp32, i64 30, i64 31, !dbg !663
  %81 = getelementptr inbounds [48 x i64]* @__llvm_gcov_ctr19, i64 0, i64 %80, !dbg !663
  %82 = load i64* %81, !dbg !663
  %83 = add i64 %82, 1, !dbg !663
  store i64 %83, i64* %81, !dbg !663
  br i1 %cmp32, label %if.then33, label %if.end35, !dbg !663

if.then33:                                        ; preds = %if.end31
  %84 = load i64* getelementptr inbounds ([48 x i64]* @__llvm_gcov_ctr19, i64 0, i64 32), !dbg !664
  %85 = add i64 %84, 1, !dbg !664
  store i64 %85, i64* getelementptr inbounds ([48 x i64]* @__llvm_gcov_ctr19, i64 0, i64 32), !dbg !664
  %86 = load i32* %no, align 4, !dbg !664
  %sub34 = sub nsw i32 %86, 1, !dbg !664
  store i32 %sub34, i32* %no, align 4, !dbg !664
  br label %if.end35, !dbg !664

if.end35:                                         ; preds = %if.then33, %if.end31
  %87 = load i32* %y.addr, align 4, !dbg !666
  %cmp36 = icmp sgt i32 %87, 5, !dbg !666
  %88 = select i1 %cmp36, i64 33, i64 34, !dbg !668
  %89 = getelementptr inbounds [48 x i64]* @__llvm_gcov_ctr19, i64 0, i64 %88, !dbg !668
  %90 = load i64* %89, !dbg !668
  %91 = add i64 %90, 1, !dbg !668
  store i64 %91, i64* %89, !dbg !668
  br i1 %cmp36, label %if.then37, label %if.end39, !dbg !668

if.then37:                                        ; preds = %if.end35
  %92 = load i64* getelementptr inbounds ([48 x i64]* @__llvm_gcov_ctr19, i64 0, i64 35), !dbg !669
  %93 = add i64 %92, 1, !dbg !669
  store i64 %93, i64* getelementptr inbounds ([48 x i64]* @__llvm_gcov_ctr19, i64 0, i64 35), !dbg !669
  %94 = load i32* %no, align 4, !dbg !669
  %sub38 = sub nsw i32 %94, 1, !dbg !669
  store i32 %sub38, i32* %no, align 4, !dbg !669
  br label %if.end39, !dbg !669

if.end39:                                         ; preds = %if.then37, %if.end35
  %95 = load i32* %y.addr, align 4, !dbg !671
  %cmp40 = icmp sgt i32 %95, 6, !dbg !671
  %96 = select i1 %cmp40, i64 36, i64 37, !dbg !673
  %97 = getelementptr inbounds [48 x i64]* @__llvm_gcov_ctr19, i64 0, i64 %96, !dbg !673
  %98 = load i64* %97, !dbg !673
  %99 = add i64 %98, 1, !dbg !673
  store i64 %99, i64* %97, !dbg !673
  br i1 %cmp40, label %if.then41, label %if.end43, !dbg !673

if.then41:                                        ; preds = %if.end39
  %100 = load i64* getelementptr inbounds ([48 x i64]* @__llvm_gcov_ctr19, i64 0, i64 38), !dbg !674
  %101 = add i64 %100, 1, !dbg !674
  store i64 %101, i64* getelementptr inbounds ([48 x i64]* @__llvm_gcov_ctr19, i64 0, i64 38), !dbg !674
  %102 = load i32* %no, align 4, !dbg !674
  %sub42 = sub nsw i32 %102, 2, !dbg !674
  store i32 %sub42, i32* %no, align 4, !dbg !674
  br label %if.end43, !dbg !674

if.end43:                                         ; preds = %if.then41, %if.end39
  %103 = load i32* %y.addr, align 4, !dbg !676
  %cmp44 = icmp sgt i32 %103, 7, !dbg !676
  %104 = select i1 %cmp44, i64 39, i64 40, !dbg !678
  %105 = getelementptr inbounds [48 x i64]* @__llvm_gcov_ctr19, i64 0, i64 %104, !dbg !678
  %106 = load i64* %105, !dbg !678
  %107 = add i64 %106, 1, !dbg !678
  store i64 %107, i64* %105, !dbg !678
  br i1 %cmp44, label %if.then45, label %if.end47, !dbg !678

if.then45:                                        ; preds = %if.end43
  %108 = load i64* getelementptr inbounds ([48 x i64]* @__llvm_gcov_ctr19, i64 0, i64 41), !dbg !679
  %109 = add i64 %108, 1, !dbg !679
  store i64 %109, i64* getelementptr inbounds ([48 x i64]* @__llvm_gcov_ctr19, i64 0, i64 41), !dbg !679
  %110 = load i32* %no, align 4, !dbg !679
  %sub46 = sub nsw i32 %110, 3, !dbg !679
  store i32 %sub46, i32* %no, align 4, !dbg !679
  br label %if.end47, !dbg !679

if.end47:                                         ; preds = %if.then45, %if.end43
  %111 = load i32* %y.addr, align 4, !dbg !681
  %cmp48 = icmp sgt i32 %111, 8, !dbg !681
  %112 = select i1 %cmp48, i64 42, i64 43, !dbg !683
  %113 = getelementptr inbounds [48 x i64]* @__llvm_gcov_ctr19, i64 0, i64 %112, !dbg !683
  %114 = load i64* %113, !dbg !683
  %115 = add i64 %114, 1, !dbg !683
  store i64 %115, i64* %113, !dbg !683
  br i1 %cmp48, label %if.then49, label %if.end51, !dbg !683

if.then49:                                        ; preds = %if.end47
  %116 = load i64* getelementptr inbounds ([48 x i64]* @__llvm_gcov_ctr19, i64 0, i64 44), !dbg !684
  %117 = add i64 %116, 1, !dbg !684
  store i64 %117, i64* getelementptr inbounds ([48 x i64]* @__llvm_gcov_ctr19, i64 0, i64 44), !dbg !684
  %118 = load i32* %no, align 4, !dbg !684
  %sub50 = sub nsw i32 %118, 4, !dbg !684
  store i32 %sub50, i32* %no, align 4, !dbg !684
  br label %if.end51, !dbg !684

if.end51:                                         ; preds = %if.then49, %if.end47
  %119 = load i64* getelementptr inbounds ([48 x i64]* @__llvm_gcov_ctr19, i64 0, i64 45), !dbg !686
  %120 = add i64 %119, 1, !dbg !686
  store i64 %120, i64* getelementptr inbounds ([48 x i64]* @__llvm_gcov_ctr19, i64 0, i64 45), !dbg !686
  %121 = load i32* %no, align 4, !dbg !686
  store i32 %121, i32* %retval, !dbg !687
  br label %return, !dbg !687

if.end52:                                         ; preds = %land.lhs.true4, %land.lhs.true2, %land.lhs.true, %2
  %122 = load i64* getelementptr inbounds ([48 x i64]* @__llvm_gcov_ctr19, i64 0, i64 46), !dbg !688
  %123 = add i64 %122, 1, !dbg !688
  store i64 %123, i64* getelementptr inbounds ([48 x i64]* @__llvm_gcov_ctr19, i64 0, i64 46), !dbg !688
  store i32 -1, i32* %retval, !dbg !688
  br label %return, !dbg !688

return:                                           ; preds = %if.end52, %if.end51, %if.then16, %if.then10
  %124 = load i64* getelementptr inbounds ([48 x i64]* @__llvm_gcov_ctr19, i64 0, i64 47), !dbg !689
  %125 = add i64 %124, 1, !dbg !689
  store i64 %125, i64* getelementptr inbounds ([48 x i64]* @__llvm_gcov_ctr19, i64 0, i64 47), !dbg !689
  %126 = load i32* %retval, !dbg !689
  ret i32 %126, !dbg !689
}

; Function Attrs: nounwind readnone
declare void @llvm.dbg.declare(metadata, metadata, metadata) #3

; Function Attrs: uwtable
define void @_Z16initCloneLookupsv() #4 {
entry:
  %0 = load i64* getelementptr inbounds ([47 x i64]* @__llvm_gcov_ctr20, i64 0, i64 0)
  %1 = add i64 %0, 1
  store i64 %1, i64* getelementptr inbounds ([47 x i64]* @__llvm_gcov_ctr20, i64 0, i64 0)
  %exn.slot = alloca i8*
  %ehselector.slot = alloca i32
  %no = alloca i32, align 4
  %i = alloca i32, align 4
  %ref.tmp = alloca %class.BitBoard64, align 4
  %coerce = alloca %class.BitBoard64, align 4
  %y = alloca i32, align 4
  %x = alloca i32, align 4
  %out = alloca i32, align 4
  br label %2

; <label>:2                                       ; preds = %entry
  %3 = load i64* getelementptr inbounds ([47 x i64]* @__llvm_gcov_ctr20, i64 0, i64 1), !dbg !690
  %4 = add i64 %3, 1, !dbg !690
  store i64 %4, i64* getelementptr inbounds ([47 x i64]* @__llvm_gcov_ctr20, i64 0, i64 1), !dbg !690
  %call = call noalias i8* @_Znam(i64 488) #9, !dbg !690
  %5 = bitcast i8* %call to %class.BitBoard64*, !dbg !690
  %arrayctor.end = getelementptr inbounds %class.BitBoard64* %5, i64 61, !dbg !690
  br label %arrayctor.loop, !dbg !690

arrayctor.loop:                                   ; preds = %invoke.cont, %2
  %arrayctor.cur = phi %class.BitBoard64* [ %5, %2 ], [ %arrayctor.next, %invoke.cont ], !dbg !690
  store i32 0, i32* @__llvm_gcov_global_state_pred, !dbg !691
  invoke void @_ZN10BitBoard64C2Ev(%class.BitBoard64* %arrayctor.cur)
          to label %invoke.cont unwind label %lpad, !dbg !691

invoke.cont:                                      ; preds = %arrayctor.loop
  call void @__llvm_gcov_indirect_counter_increment(i32* @__llvm_gcov_global_state_pred, i64** getelementptr inbounds ([2 x i64*]* @__llvm_gcda_edge_table, i64 0, i64 0)), !dbg !694
  %arrayctor.next = getelementptr inbounds %class.BitBoard64* %arrayctor.cur, i64 1, !dbg !694
  %arrayctor.done = icmp eq %class.BitBoard64* %arrayctor.next, %arrayctor.end, !dbg !694
  %6 = select i1 %arrayctor.done, i64 4, i64 5, !dbg !694
  %7 = getelementptr inbounds [47 x i64]* @__llvm_gcov_ctr20, i64 0, i64 %6, !dbg !694
  %8 = load i64* %7, !dbg !694
  %9 = add i64 %8, 1, !dbg !694
  store i64 %9, i64* %7, !dbg !694
  br i1 %arrayctor.done, label %arrayctor.cont, label %arrayctor.loop, !dbg !694

arrayctor.cont:                                   ; preds = %invoke.cont
  %10 = load i64* getelementptr inbounds ([47 x i64]* @__llvm_gcov_ctr20, i64 0, i64 6), !dbg !696
  %11 = add i64 %10, 1, !dbg !696
  store i64 %11, i64* getelementptr inbounds ([47 x i64]* @__llvm_gcov_ctr20, i64 0, i64 6), !dbg !696
  store %class.BitBoard64* %5, %class.BitBoard64** @clone_lookups, align 8, !dbg !696
  call void @llvm.dbg.declare(metadata i32* %no, metadata !698, metadata !605), !dbg !699
  store i32 0, i32* %no, align 4, !dbg !699
  call void @llvm.dbg.declare(metadata i32* %i, metadata !700, metadata !605), !dbg !702
  store i32 0, i32* %i, align 4, !dbg !702
  br label %for.cond, !dbg !703

for.cond:                                         ; preds = %for.inc, %arrayctor.cont
  %12 = load i32* %i, align 4, !dbg !704
  %cmp = icmp slt i32 %12, 61, !dbg !704
  %13 = select i1 %cmp, i64 7, i64 8, !dbg !708
  %14 = getelementptr inbounds [47 x i64]* @__llvm_gcov_ctr20, i64 0, i64 %13, !dbg !708
  %15 = load i64* %14, !dbg !708
  %16 = add i64 %15, 1, !dbg !708
  store i64 %16, i64* %14, !dbg !708
  br i1 %cmp, label %for.body, label %for.end, !dbg !708

for.body:                                         ; preds = %for.cond
  %17 = load i64* getelementptr inbounds ([47 x i64]* @__llvm_gcov_ctr20, i64 0, i64 9), !dbg !709
  %18 = add i64 %17, 1, !dbg !709
  store i64 %18, i64* getelementptr inbounds ([47 x i64]* @__llvm_gcov_ctr20, i64 0, i64 9), !dbg !709
  %19 = load i32* %i, align 4, !dbg !709
  %idxprom = sext i32 %19 to i64, !dbg !710
  %20 = load %class.BitBoard64** @clone_lookups, align 8, !dbg !710
  %arrayidx = getelementptr inbounds %class.BitBoard64* %20, i64 %idxprom, !dbg !710
  call void @_ZN10BitBoard64C2Ejj(%class.BitBoard64* %ref.tmp, i32 0, i32 0), !dbg !710
  %call1 = call i64 @_ZN10BitBoard64aSERKS_(%class.BitBoard64* %arrayidx, %class.BitBoard64* dereferenceable(8) %ref.tmp), !dbg !710
  %21 = bitcast %class.BitBoard64* %coerce to i64*, !dbg !710
  store i64 %call1, i64* %21, align 1, !dbg !710
  br label %for.inc, !dbg !710

for.inc:                                          ; preds = %for.body
  %22 = load i64* getelementptr inbounds ([47 x i64]* @__llvm_gcov_ctr20, i64 0, i64 10), !dbg !711
  %23 = add i64 %22, 1, !dbg !711
  store i64 %23, i64* getelementptr inbounds ([47 x i64]* @__llvm_gcov_ctr20, i64 0, i64 10), !dbg !711
  %24 = load i32* %i, align 4, !dbg !711
  %inc = add nsw i32 %24, 1, !dbg !711
  store i32 %inc, i32* %i, align 4, !dbg !711
  br label %for.cond, !dbg !712

lpad:                                             ; preds = %arrayctor.loop
  %25 = landingpad { i8*, i32 } personality i8* bitcast (i32 (...)* @__gxx_personality_v0 to i8*)
          cleanup, !dbg !713
  call void @__llvm_gcov_indirect_counter_increment(i32* @__llvm_gcov_global_state_pred, i64** getelementptr inbounds ([2 x i64*]* @__llvm_gcda_edge_table, i64 0, i64 1)), !dbg !713
  %26 = load i64* getelementptr inbounds ([47 x i64]* @__llvm_gcov_ctr20, i64 0, i64 11), !dbg !713
  %27 = add i64 %26, 1, !dbg !713
  store i64 %27, i64* getelementptr inbounds ([47 x i64]* @__llvm_gcov_ctr20, i64 0, i64 11), !dbg !713
  %28 = extractvalue { i8*, i32 } %25, 0, !dbg !713
  store i8* %28, i8** %exn.slot, !dbg !713
  %29 = extractvalue { i8*, i32 } %25, 1, !dbg !713
  store i32 %29, i32* %ehselector.slot, !dbg !713
  call void @_ZdaPv(i8* %call) #10, !dbg !713
  br label %eh.resume, !dbg !713

for.end:                                          ; preds = %for.cond
  %30 = load i64* getelementptr inbounds ([47 x i64]* @__llvm_gcov_ctr20, i64 0, i64 12), !dbg !714
  %31 = add i64 %30, 1, !dbg !714
  store i64 %31, i64* getelementptr inbounds ([47 x i64]* @__llvm_gcov_ctr20, i64 0, i64 12), !dbg !714
  call void @llvm.dbg.declare(metadata i32* %y, metadata !716, metadata !605), !dbg !714
  store i32 1, i32* %y, align 4, !dbg !714
  br label %for.cond2, !dbg !717

for.cond2:                                        ; preds = %for.inc59, %for.end
  %32 = load i32* %y, align 4, !dbg !718
  %cmp3 = icmp sle i32 %32, 9, !dbg !718
  %33 = select i1 %cmp3, i64 13, i64 14, !dbg !722
  %34 = getelementptr inbounds [47 x i64]* @__llvm_gcov_ctr20, i64 0, i64 %33, !dbg !722
  %35 = load i64* %34, !dbg !722
  %36 = add i64 %35, 1, !dbg !722
  store i64 %36, i64* %34, !dbg !722
  br i1 %cmp3, label %for.body4, label %for.end61, !dbg !722

for.body4:                                        ; preds = %for.cond2
  %37 = load i64* getelementptr inbounds ([47 x i64]* @__llvm_gcov_ctr20, i64 0, i64 15), !dbg !723
  %38 = add i64 %37, 1, !dbg !723
  store i64 %38, i64* getelementptr inbounds ([47 x i64]* @__llvm_gcov_ctr20, i64 0, i64 15), !dbg !723
  call void @llvm.dbg.declare(metadata i32* %x, metadata !726, metadata !605), !dbg !723
  store i32 1, i32* %x, align 4, !dbg !723
  br label %for.cond5, !dbg !727

for.cond5:                                        ; preds = %for.inc56, %for.body4
  %39 = load i32* %x, align 4, !dbg !728
  %cmp6 = icmp sle i32 %39, 9, !dbg !728
  %40 = select i1 %cmp6, i64 16, i64 17, !dbg !732
  %41 = getelementptr inbounds [47 x i64]* @__llvm_gcov_ctr20, i64 0, i64 %40, !dbg !732
  %42 = load i64* %41, !dbg !732
  %43 = add i64 %42, 1, !dbg !732
  store i64 %43, i64* %41, !dbg !732
  br i1 %cmp6, label %for.body7, label %for.end58, !dbg !732

for.body7:                                        ; preds = %for.cond5
  call void @llvm.dbg.declare(metadata i32* %out, metadata !733, metadata !605), !dbg !735
  store i32 0, i32* %out, align 4, !dbg !735
  %44 = load i32* %x, align 4, !dbg !736
  %cmp8 = icmp sgt i32 %44, 0, !dbg !736
  %45 = select i1 %cmp8, i64 18, i64 19, !dbg !738
  %46 = getelementptr inbounds [47 x i64]* @__llvm_gcov_ctr20, i64 0, i64 %45, !dbg !738
  %47 = load i64* %46, !dbg !738
  %48 = add i64 %47, 1, !dbg !738
  store i64 %48, i64* %46, !dbg !738
  br i1 %cmp8, label %land.lhs.true, label %if.end27, !dbg !738

land.lhs.true:                                    ; preds = %for.body7
  %49 = load i32* %x, align 4, !dbg !739
  %cmp9 = icmp slt i32 %49, 10, !dbg !739
  %50 = select i1 %cmp9, i64 20, i64 21, !dbg !738
  %51 = getelementptr inbounds [47 x i64]* @__llvm_gcov_ctr20, i64 0, i64 %50, !dbg !738
  %52 = load i64* %51, !dbg !738
  %53 = add i64 %52, 1, !dbg !738
  store i64 %53, i64* %51, !dbg !738
  br i1 %cmp9, label %land.lhs.true10, label %if.end27, !dbg !738

land.lhs.true10:                                  ; preds = %land.lhs.true
  %54 = load i32* %y, align 4, !dbg !741
  %cmp11 = icmp sgt i32 %54, 0, !dbg !741
  %55 = select i1 %cmp11, i64 22, i64 23, !dbg !738
  %56 = getelementptr inbounds [47 x i64]* @__llvm_gcov_ctr20, i64 0, i64 %55, !dbg !738
  %57 = load i64* %56, !dbg !738
  %58 = add i64 %57, 1, !dbg !738
  store i64 %58, i64* %56, !dbg !738
  br i1 %cmp11, label %land.lhs.true12, label %if.end27, !dbg !738

land.lhs.true12:                                  ; preds = %land.lhs.true10
  %59 = load i32* %y, align 4, !dbg !743
  %cmp13 = icmp slt i32 %59, 10, !dbg !743
  %60 = select i1 %cmp13, i64 24, i64 25, !dbg !738
  %61 = getelementptr inbounds [47 x i64]* @__llvm_gcov_ctr20, i64 0, i64 %60, !dbg !738
  %62 = load i64* %61, !dbg !738
  %63 = add i64 %62, 1, !dbg !738
  store i64 %63, i64* %61, !dbg !738
  br i1 %cmp13, label %if.then, label %if.end27, !dbg !738

if.then:                                          ; preds = %land.lhs.true12
  %64 = load i32* %y, align 4, !dbg !745
  %cmp14 = icmp slt i32 %64, 5, !dbg !745
  %65 = select i1 %cmp14, i64 26, i64 27, !dbg !748
  %66 = getelementptr inbounds [47 x i64]* @__llvm_gcov_ctr20, i64 0, i64 %65, !dbg !748
  %67 = load i64* %66, !dbg !748
  %68 = add i64 %67, 1, !dbg !748
  store i64 %68, i64* %66, !dbg !748
  br i1 %cmp14, label %if.then15, label %if.end19, !dbg !748

if.then15:                                        ; preds = %if.then
  %69 = load i32* %x, align 4, !dbg !749
  %70 = load i32* %y, align 4, !dbg !751
  %sub = sub nsw i32 5, %70, !dbg !752
  %sub16 = sub nsw i32 9, %sub, !dbg !753
  %cmp17 = icmp sgt i32 %69, %sub16, !dbg !749
  %71 = select i1 %cmp17, i64 28, i64 29, !dbg !754
  %72 = getelementptr inbounds [47 x i64]* @__llvm_gcov_ctr20, i64 0, i64 %71, !dbg !754
  %73 = load i64* %72, !dbg !754
  %74 = add i64 %73, 1, !dbg !754
  store i64 %74, i64* %72, !dbg !754
  br i1 %cmp17, label %if.then18, label %if.end, !dbg !754

if.then18:                                        ; preds = %if.then15
  %75 = load i64* getelementptr inbounds ([47 x i64]* @__llvm_gcov_ctr20, i64 0, i64 30), !dbg !755
  %76 = add i64 %75, 1, !dbg !755
  store i64 %76, i64* getelementptr inbounds ([47 x i64]* @__llvm_gcov_ctr20, i64 0, i64 30), !dbg !755
  store i32 1, i32* %out, align 4, !dbg !755
  br label %if.end, !dbg !755

if.end:                                           ; preds = %if.then18, %if.then15
  %77 = load i64* getelementptr inbounds ([47 x i64]* @__llvm_gcov_ctr20, i64 0, i64 31), !dbg !756
  %78 = add i64 %77, 1, !dbg !756
  store i64 %78, i64* getelementptr inbounds ([47 x i64]* @__llvm_gcov_ctr20, i64 0, i64 31), !dbg !756
  br label %if.end19, !dbg !756

if.end19:                                         ; preds = %if.end, %if.then
  %79 = load i32* %y, align 4, !dbg !758
  %cmp20 = icmp sgt i32 %79, 5, !dbg !758
  %80 = select i1 %cmp20, i64 32, i64 33, !dbg !760
  %81 = getelementptr inbounds [47 x i64]* @__llvm_gcov_ctr20, i64 0, i64 %80, !dbg !760
  %82 = load i64* %81, !dbg !760
  %83 = add i64 %82, 1, !dbg !760
  store i64 %83, i64* %81, !dbg !760
  br i1 %cmp20, label %if.then21, label %if.end26, !dbg !760

if.then21:                                        ; preds = %if.end19
  %84 = load i32* %x, align 4, !dbg !761
  %85 = load i32* %y, align 4, !dbg !763
  %sub22 = sub nsw i32 %85, 5, !dbg !763
  %cmp23 = icmp sle i32 %84, %sub22, !dbg !761
  %86 = select i1 %cmp23, i64 34, i64 35, !dbg !764
  %87 = getelementptr inbounds [47 x i64]* @__llvm_gcov_ctr20, i64 0, i64 %86, !dbg !764
  %88 = load i64* %87, !dbg !764
  %89 = add i64 %88, 1, !dbg !764
  store i64 %89, i64* %87, !dbg !764
  br i1 %cmp23, label %if.then24, label %if.end25, !dbg !764

if.then24:                                        ; preds = %if.then21
  %90 = load i64* getelementptr inbounds ([47 x i64]* @__llvm_gcov_ctr20, i64 0, i64 36), !dbg !765
  %91 = add i64 %90, 1, !dbg !765
  store i64 %91, i64* getelementptr inbounds ([47 x i64]* @__llvm_gcov_ctr20, i64 0, i64 36), !dbg !765
  store i32 1, i32* %out, align 4, !dbg !765
  br label %if.end25, !dbg !765

if.end25:                                         ; preds = %if.then24, %if.then21
  %92 = load i64* getelementptr inbounds ([47 x i64]* @__llvm_gcov_ctr20, i64 0, i64 37), !dbg !766
  %93 = add i64 %92, 1, !dbg !766
  store i64 %93, i64* getelementptr inbounds ([47 x i64]* @__llvm_gcov_ctr20, i64 0, i64 37), !dbg !766
  br label %if.end26, !dbg !766

if.end26:                                         ; preds = %if.end25, %if.end19
  %94 = load i64* getelementptr inbounds ([47 x i64]* @__llvm_gcov_ctr20, i64 0, i64 38), !dbg !768
  %95 = add i64 %94, 1, !dbg !768
  store i64 %95, i64* getelementptr inbounds ([47 x i64]* @__llvm_gcov_ctr20, i64 0, i64 38), !dbg !768
  br label %if.end27, !dbg !768

if.end27:                                         ; preds = %if.end26, %land.lhs.true12, %land.lhs.true10, %land.lhs.true, %for.body7
  %96 = load i32* %out, align 4, !dbg !769
  %tobool = icmp ne i32 %96, 0, !dbg !769
  %97 = select i1 %tobool, i64 39, i64 40, !dbg !771
  %98 = getelementptr inbounds [47 x i64]* @__llvm_gcov_ctr20, i64 0, i64 %97, !dbg !771
  %99 = load i64* %98, !dbg !771
  %100 = add i64 %99, 1, !dbg !771
  store i64 %100, i64* %98, !dbg !771
  br i1 %tobool, label %if.end55, label %if.then28, !dbg !771

if.then28:                                        ; preds = %if.end27
  %101 = load i64* getelementptr inbounds ([47 x i64]* @__llvm_gcov_ctr20, i64 0, i64 41), !dbg !772
  %102 = add i64 %101, 1, !dbg !772
  store i64 %102, i64* getelementptr inbounds ([47 x i64]* @__llvm_gcov_ctr20, i64 0, i64 41), !dbg !772
  %103 = load i32* %no, align 4, !dbg !772
  %idxprom29 = sext i32 %103 to i64, !dbg !774
  %104 = load %class.BitBoard64** @clone_lookups, align 8, !dbg !774
  %arrayidx30 = getelementptr inbounds %class.BitBoard64* %104, i64 %idxprom29, !dbg !774
  %105 = load i32* %x, align 4, !dbg !775
  %sub31 = sub nsw i32 %105, 1, !dbg !775
  %106 = load i32* %y, align 4, !dbg !776
  %sub32 = sub nsw i32 %106, 1, !dbg !776
  %call33 = call i32 @_Z16getHexxagonIndexii(i32 %sub31, i32 %sub32), !dbg !777
  call void @_ZN10BitBoard646setBitEi(%class.BitBoard64* %arrayidx30, i32 %call33), !dbg !774
  %107 = load i32* %no, align 4, !dbg !778
  %idxprom34 = sext i32 %107 to i64, !dbg !779
  %108 = load %class.BitBoard64** @clone_lookups, align 8, !dbg !779
  %arrayidx35 = getelementptr inbounds %class.BitBoard64* %108, i64 %idxprom34, !dbg !779
  %109 = load i32* %x, align 4, !dbg !780
  %110 = load i32* %y, align 4, !dbg !781
  %sub36 = sub nsw i32 %110, 1, !dbg !781
  %call37 = call i32 @_Z16getHexxagonIndexii(i32 %109, i32 %sub36), !dbg !782
  call void @_ZN10BitBoard646setBitEi(%class.BitBoard64* %arrayidx35, i32 %call37), !dbg !779
  %111 = load i32* %no, align 4, !dbg !783
  %idxprom38 = sext i32 %111 to i64, !dbg !784
  %112 = load %class.BitBoard64** @clone_lookups, align 8, !dbg !784
  %arrayidx39 = getelementptr inbounds %class.BitBoard64* %112, i64 %idxprom38, !dbg !784
  %113 = load i32* %x, align 4, !dbg !785
  %sub40 = sub nsw i32 %113, 1, !dbg !785
  %114 = load i32* %y, align 4, !dbg !786
  %call41 = call i32 @_Z16getHexxagonIndexii(i32 %sub40, i32 %114), !dbg !787
  call void @_ZN10BitBoard646setBitEi(%class.BitBoard64* %arrayidx39, i32 %call41), !dbg !784
  %115 = load i32* %no, align 4, !dbg !788
  %idxprom42 = sext i32 %115 to i64, !dbg !789
  %116 = load %class.BitBoard64** @clone_lookups, align 8, !dbg !789
  %arrayidx43 = getelementptr inbounds %class.BitBoard64* %116, i64 %idxprom42, !dbg !789
  %117 = load i32* %x, align 4, !dbg !790
  %add = add nsw i32 %117, 1, !dbg !790
  %118 = load i32* %y, align 4, !dbg !791
  %call44 = call i32 @_Z16getHexxagonIndexii(i32 %add, i32 %118), !dbg !792
  call void @_ZN10BitBoard646setBitEi(%class.BitBoard64* %arrayidx43, i32 %call44), !dbg !789
  %119 = load i32* %no, align 4, !dbg !793
  %idxprom45 = sext i32 %119 to i64, !dbg !794
  %120 = load %class.BitBoard64** @clone_lookups, align 8, !dbg !794
  %arrayidx46 = getelementptr inbounds %class.BitBoard64* %120, i64 %idxprom45, !dbg !794
  %121 = load i32* %x, align 4, !dbg !795
  %122 = load i32* %y, align 4, !dbg !796
  %add47 = add nsw i32 %122, 1, !dbg !796
  %call48 = call i32 @_Z16getHexxagonIndexii(i32 %121, i32 %add47), !dbg !797
  call void @_ZN10BitBoard646setBitEi(%class.BitBoard64* %arrayidx46, i32 %call48), !dbg !794
  %123 = load i32* %no, align 4, !dbg !798
  %idxprom49 = sext i32 %123 to i64, !dbg !799
  %124 = load %class.BitBoard64** @clone_lookups, align 8, !dbg !799
  %arrayidx50 = getelementptr inbounds %class.BitBoard64* %124, i64 %idxprom49, !dbg !799
  %125 = load i32* %x, align 4, !dbg !800
  %add51 = add nsw i32 %125, 1, !dbg !800
  %126 = load i32* %y, align 4, !dbg !801
  %add52 = add nsw i32 %126, 1, !dbg !801
  %call53 = call i32 @_Z16getHexxagonIndexii(i32 %add51, i32 %add52), !dbg !802
  call void @_ZN10BitBoard646setBitEi(%class.BitBoard64* %arrayidx50, i32 %call53), !dbg !799
  %127 = load i32* %no, align 4, !dbg !803
  %inc54 = add nsw i32 %127, 1, !dbg !803
  store i32 %inc54, i32* %no, align 4, !dbg !803
  br label %if.end55, !dbg !804

if.end55:                                         ; preds = %if.then28, %if.end27
  %128 = load i64* getelementptr inbounds ([47 x i64]* @__llvm_gcov_ctr20, i64 0, i64 42), !dbg !805
  %129 = add i64 %128, 1, !dbg !805
  store i64 %129, i64* getelementptr inbounds ([47 x i64]* @__llvm_gcov_ctr20, i64 0, i64 42), !dbg !805
  br label %for.inc56, !dbg !805

for.inc56:                                        ; preds = %if.end55
  %130 = load i64* getelementptr inbounds ([47 x i64]* @__llvm_gcov_ctr20, i64 0, i64 43), !dbg !806
  %131 = add i64 %130, 1, !dbg !806
  store i64 %131, i64* getelementptr inbounds ([47 x i64]* @__llvm_gcov_ctr20, i64 0, i64 43), !dbg !806
  %132 = load i32* %x, align 4, !dbg !806
  %inc57 = add nsw i32 %132, 1, !dbg !806
  store i32 %inc57, i32* %x, align 4, !dbg !806
  br label %for.cond5, !dbg !807

for.end58:                                        ; preds = %for.cond5
  %133 = load i64* getelementptr inbounds ([47 x i64]* @__llvm_gcov_ctr20, i64 0, i64 44), !dbg !808
  %134 = add i64 %133, 1, !dbg !808
  store i64 %134, i64* getelementptr inbounds ([47 x i64]* @__llvm_gcov_ctr20, i64 0, i64 44), !dbg !808
  br label %for.inc59, !dbg !808

for.inc59:                                        ; preds = %for.end58
  %135 = load i64* getelementptr inbounds ([47 x i64]* @__llvm_gcov_ctr20, i64 0, i64 45), !dbg !809
  %136 = add i64 %135, 1, !dbg !809
  store i64 %136, i64* getelementptr inbounds ([47 x i64]* @__llvm_gcov_ctr20, i64 0, i64 45), !dbg !809
  %137 = load i32* %y, align 4, !dbg !809
  %inc60 = add nsw i32 %137, 1, !dbg !809
  store i32 %inc60, i32* %y, align 4, !dbg !809
  br label %for.cond2, !dbg !810

for.end61:                                        ; preds = %for.cond2
  %138 = load i64* getelementptr inbounds ([47 x i64]* @__llvm_gcov_ctr20, i64 0, i64 46), !dbg !713
  %139 = add i64 %138, 1, !dbg !713
  store i64 %139, i64* getelementptr inbounds ([47 x i64]* @__llvm_gcov_ctr20, i64 0, i64 46), !dbg !713
  ret void, !dbg !713

eh.resume:                                        ; preds = %lpad
  %exn = load i8** %exn.slot, !dbg !811
  %sel = load i32* %ehselector.slot, !dbg !811
  %lpad.val = insertvalue { i8*, i32 } undef, i8* %exn, 0, !dbg !811
  %lpad.val62 = insertvalue { i8*, i32 } %lpad.val, i32 %sel, 1, !dbg !811
  resume { i8*, i32 } %lpad.val62, !dbg !811
}

; Function Attrs: nobuiltin
declare noalias i8* @_Znam(i64) #5

; Function Attrs: nounwind uwtable
define linkonce_odr void @_ZN10BitBoard64C2Ev(%class.BitBoard64* %this) unnamed_addr #2 align 2 {
entry:
  %0 = load i64* getelementptr inbounds ([2 x i64]* @__llvm_gcov_ctr52, i64 0, i64 0)
  %1 = add i64 %0, 1
  store i64 %1, i64* getelementptr inbounds ([2 x i64]* @__llvm_gcov_ctr52, i64 0, i64 0)
  %this.addr = alloca %class.BitBoard64*, align 8
  br label %2

; <label>:2                                       ; preds = %entry
  %3 = load i64* getelementptr inbounds ([2 x i64]* @__llvm_gcov_ctr52, i64 0, i64 1)
  %4 = add i64 %3, 1
  store i64 %4, i64* getelementptr inbounds ([2 x i64]* @__llvm_gcov_ctr52, i64 0, i64 1)
  store %class.BitBoard64* %this, %class.BitBoard64** %this.addr, align 8
  call void @llvm.dbg.declare(metadata %class.BitBoard64** %this.addr, metadata !812, metadata !605), !dbg !813
  %this1 = load %class.BitBoard64** %this.addr
  ret void, !dbg !814
}

declare i32 @__gxx_personality_v0(...)

; Function Attrs: nobuiltin nounwind
declare void @_ZdaPv(i8*) #6

declare i64 @_ZN10BitBoard64aSERKS_(%class.BitBoard64*, %class.BitBoard64* dereferenceable(8)) #0

; Function Attrs: nounwind uwtable
define linkonce_odr void @_ZN10BitBoard64C2Ejj(%class.BitBoard64* %this, i32 %l, i32 %h) unnamed_addr #2 align 2 {
entry:
  %0 = load i64* getelementptr inbounds ([2 x i64]* @__llvm_gcov_ctr51, i64 0, i64 0)
  %1 = add i64 %0, 1
  store i64 %1, i64* getelementptr inbounds ([2 x i64]* @__llvm_gcov_ctr51, i64 0, i64 0)
  %this.addr = alloca %class.BitBoard64*, align 8
  %l.addr = alloca i32, align 4
  %h.addr = alloca i32, align 4
  br label %2

; <label>:2                                       ; preds = %entry
  %3 = load i64* getelementptr inbounds ([2 x i64]* @__llvm_gcov_ctr51, i64 0, i64 1)
  %4 = add i64 %3, 1
  store i64 %4, i64* getelementptr inbounds ([2 x i64]* @__llvm_gcov_ctr51, i64 0, i64 1)
  store %class.BitBoard64* %this, %class.BitBoard64** %this.addr, align 8
  call void @llvm.dbg.declare(metadata %class.BitBoard64** %this.addr, metadata !815, metadata !605), !dbg !816
  store i32 %l, i32* %l.addr, align 4
  call void @llvm.dbg.declare(metadata i32* %l.addr, metadata !817, metadata !605), !dbg !819
  store i32 %h, i32* %h.addr, align 4
  call void @llvm.dbg.declare(metadata i32* %h.addr, metadata !820, metadata !605), !dbg !821
  %this1 = load %class.BitBoard64** %this.addr
  %5 = load i32* %l.addr, align 4, !dbg !822
  %lowbits = getelementptr inbounds %class.BitBoard64* %this1, i32 0, i32 0, !dbg !824
  store i32 %5, i32* %lowbits, align 4, !dbg !824
  %6 = load i32* %h.addr, align 4, !dbg !825
  %highbits = getelementptr inbounds %class.BitBoard64* %this1, i32 0, i32 1, !dbg !824
  store i32 %6, i32* %highbits, align 4, !dbg !824
  ret void, !dbg !826
}

declare void @_ZN10BitBoard646setBitEi(%class.BitBoard64*, i32) #0

; Function Attrs: uwtable
define void @_Z15initJumpLookupsv() #4 {
entry:
  %0 = load i64* getelementptr inbounds ([47 x i64]* @__llvm_gcov_ctr21, i64 0, i64 0)
  %1 = add i64 %0, 1
  store i64 %1, i64* getelementptr inbounds ([47 x i64]* @__llvm_gcov_ctr21, i64 0, i64 0)
  %exn.slot = alloca i8*
  %ehselector.slot = alloca i32
  %no = alloca i32, align 4
  %i = alloca i32, align 4
  %ref.tmp = alloca %class.BitBoard64, align 4
  %coerce = alloca %class.BitBoard64, align 4
  %y = alloca i32, align 4
  %x = alloca i32, align 4
  %out = alloca i32, align 4
  br label %2

; <label>:2                                       ; preds = %entry
  %3 = load i64* getelementptr inbounds ([47 x i64]* @__llvm_gcov_ctr21, i64 0, i64 1), !dbg !827
  %4 = add i64 %3, 1, !dbg !827
  store i64 %4, i64* getelementptr inbounds ([47 x i64]* @__llvm_gcov_ctr21, i64 0, i64 1), !dbg !827
  %call = call noalias i8* @_Znam(i64 488) #9, !dbg !827
  %5 = bitcast i8* %call to %class.BitBoard64*, !dbg !827
  %arrayctor.end = getelementptr inbounds %class.BitBoard64* %5, i64 61, !dbg !827
  br label %arrayctor.loop, !dbg !827

arrayctor.loop:                                   ; preds = %invoke.cont, %2
  %arrayctor.cur = phi %class.BitBoard64* [ %5, %2 ], [ %arrayctor.next, %invoke.cont ], !dbg !827
  store i32 0, i32* @__llvm_gcov_global_state_pred23, !dbg !828
  invoke void @_ZN10BitBoard64C2Ev(%class.BitBoard64* %arrayctor.cur)
          to label %invoke.cont unwind label %lpad, !dbg !828

invoke.cont:                                      ; preds = %arrayctor.loop
  call void @__llvm_gcov_indirect_counter_increment(i32* @__llvm_gcov_global_state_pred23, i64** getelementptr inbounds ([2 x i64*]* @__llvm_gcda_edge_table22, i64 0, i64 0)), !dbg !831
  %arrayctor.next = getelementptr inbounds %class.BitBoard64* %arrayctor.cur, i64 1, !dbg !831
  %arrayctor.done = icmp eq %class.BitBoard64* %arrayctor.next, %arrayctor.end, !dbg !831
  %6 = select i1 %arrayctor.done, i64 4, i64 5, !dbg !831
  %7 = getelementptr inbounds [47 x i64]* @__llvm_gcov_ctr21, i64 0, i64 %6, !dbg !831
  %8 = load i64* %7, !dbg !831
  %9 = add i64 %8, 1, !dbg !831
  store i64 %9, i64* %7, !dbg !831
  br i1 %arrayctor.done, label %arrayctor.cont, label %arrayctor.loop, !dbg !831

arrayctor.cont:                                   ; preds = %invoke.cont
  %10 = load i64* getelementptr inbounds ([47 x i64]* @__llvm_gcov_ctr21, i64 0, i64 6), !dbg !833
  %11 = add i64 %10, 1, !dbg !833
  store i64 %11, i64* getelementptr inbounds ([47 x i64]* @__llvm_gcov_ctr21, i64 0, i64 6), !dbg !833
  store %class.BitBoard64* %5, %class.BitBoard64** @jump_lookups, align 8, !dbg !833
  call void @llvm.dbg.declare(metadata i32* %no, metadata !835, metadata !605), !dbg !836
  store i32 0, i32* %no, align 4, !dbg !836
  call void @llvm.dbg.declare(metadata i32* %i, metadata !837, metadata !605), !dbg !839
  store i32 0, i32* %i, align 4, !dbg !839
  br label %for.cond, !dbg !840

for.cond:                                         ; preds = %for.inc, %arrayctor.cont
  %12 = load i32* %i, align 4, !dbg !841
  %cmp = icmp slt i32 %12, 61, !dbg !841
  %13 = select i1 %cmp, i64 7, i64 8, !dbg !845
  %14 = getelementptr inbounds [47 x i64]* @__llvm_gcov_ctr21, i64 0, i64 %13, !dbg !845
  %15 = load i64* %14, !dbg !845
  %16 = add i64 %15, 1, !dbg !845
  store i64 %16, i64* %14, !dbg !845
  br i1 %cmp, label %for.body, label %for.end, !dbg !845

for.body:                                         ; preds = %for.cond
  %17 = load i64* getelementptr inbounds ([47 x i64]* @__llvm_gcov_ctr21, i64 0, i64 9), !dbg !846
  %18 = add i64 %17, 1, !dbg !846
  store i64 %18, i64* getelementptr inbounds ([47 x i64]* @__llvm_gcov_ctr21, i64 0, i64 9), !dbg !846
  %19 = load i32* %i, align 4, !dbg !846
  %idxprom = sext i32 %19 to i64, !dbg !847
  %20 = load %class.BitBoard64** @jump_lookups, align 8, !dbg !847
  %arrayidx = getelementptr inbounds %class.BitBoard64* %20, i64 %idxprom, !dbg !847
  call void @_ZN10BitBoard64C2Ejj(%class.BitBoard64* %ref.tmp, i32 0, i32 0), !dbg !847
  %call1 = call i64 @_ZN10BitBoard64aSERKS_(%class.BitBoard64* %arrayidx, %class.BitBoard64* dereferenceable(8) %ref.tmp), !dbg !847
  %21 = bitcast %class.BitBoard64* %coerce to i64*, !dbg !847
  store i64 %call1, i64* %21, align 1, !dbg !847
  br label %for.inc, !dbg !847

for.inc:                                          ; preds = %for.body
  %22 = load i64* getelementptr inbounds ([47 x i64]* @__llvm_gcov_ctr21, i64 0, i64 10), !dbg !848
  %23 = add i64 %22, 1, !dbg !848
  store i64 %23, i64* getelementptr inbounds ([47 x i64]* @__llvm_gcov_ctr21, i64 0, i64 10), !dbg !848
  %24 = load i32* %i, align 4, !dbg !848
  %inc = add nsw i32 %24, 1, !dbg !848
  store i32 %inc, i32* %i, align 4, !dbg !848
  br label %for.cond, !dbg !849

lpad:                                             ; preds = %arrayctor.loop
  %25 = landingpad { i8*, i32 } personality i8* bitcast (i32 (...)* @__gxx_personality_v0 to i8*)
          cleanup, !dbg !850
  call void @__llvm_gcov_indirect_counter_increment(i32* @__llvm_gcov_global_state_pred23, i64** getelementptr inbounds ([2 x i64*]* @__llvm_gcda_edge_table22, i64 0, i64 1)), !dbg !850
  %26 = load i64* getelementptr inbounds ([47 x i64]* @__llvm_gcov_ctr21, i64 0, i64 11), !dbg !850
  %27 = add i64 %26, 1, !dbg !850
  store i64 %27, i64* getelementptr inbounds ([47 x i64]* @__llvm_gcov_ctr21, i64 0, i64 11), !dbg !850
  %28 = extractvalue { i8*, i32 } %25, 0, !dbg !850
  store i8* %28, i8** %exn.slot, !dbg !850
  %29 = extractvalue { i8*, i32 } %25, 1, !dbg !850
  store i32 %29, i32* %ehselector.slot, !dbg !850
  call void @_ZdaPv(i8* %call) #10, !dbg !850
  br label %eh.resume, !dbg !850

for.end:                                          ; preds = %for.cond
  %30 = load i64* getelementptr inbounds ([47 x i64]* @__llvm_gcov_ctr21, i64 0, i64 12), !dbg !851
  %31 = add i64 %30, 1, !dbg !851
  store i64 %31, i64* getelementptr inbounds ([47 x i64]* @__llvm_gcov_ctr21, i64 0, i64 12), !dbg !851
  call void @llvm.dbg.declare(metadata i32* %y, metadata !853, metadata !605), !dbg !851
  store i32 1, i32* %y, align 4, !dbg !851
  br label %for.cond2, !dbg !854

for.cond2:                                        ; preds = %for.inc89, %for.end
  %32 = load i32* %y, align 4, !dbg !855
  %cmp3 = icmp sle i32 %32, 9, !dbg !855
  %33 = select i1 %cmp3, i64 13, i64 14, !dbg !859
  %34 = getelementptr inbounds [47 x i64]* @__llvm_gcov_ctr21, i64 0, i64 %33, !dbg !859
  %35 = load i64* %34, !dbg !859
  %36 = add i64 %35, 1, !dbg !859
  store i64 %36, i64* %34, !dbg !859
  br i1 %cmp3, label %for.body4, label %for.end91, !dbg !859

for.body4:                                        ; preds = %for.cond2
  %37 = load i64* getelementptr inbounds ([47 x i64]* @__llvm_gcov_ctr21, i64 0, i64 15), !dbg !860
  %38 = add i64 %37, 1, !dbg !860
  store i64 %38, i64* getelementptr inbounds ([47 x i64]* @__llvm_gcov_ctr21, i64 0, i64 15), !dbg !860
  call void @llvm.dbg.declare(metadata i32* %x, metadata !863, metadata !605), !dbg !860
  store i32 1, i32* %x, align 4, !dbg !860
  br label %for.cond5, !dbg !864

for.cond5:                                        ; preds = %for.inc86, %for.body4
  %39 = load i32* %x, align 4, !dbg !865
  %cmp6 = icmp sle i32 %39, 9, !dbg !865
  %40 = select i1 %cmp6, i64 16, i64 17, !dbg !869
  %41 = getelementptr inbounds [47 x i64]* @__llvm_gcov_ctr21, i64 0, i64 %40, !dbg !869
  %42 = load i64* %41, !dbg !869
  %43 = add i64 %42, 1, !dbg !869
  store i64 %43, i64* %41, !dbg !869
  br i1 %cmp6, label %for.body7, label %for.end88, !dbg !869

for.body7:                                        ; preds = %for.cond5
  call void @llvm.dbg.declare(metadata i32* %out, metadata !870, metadata !605), !dbg !872
  store i32 0, i32* %out, align 4, !dbg !872
  %44 = load i32* %x, align 4, !dbg !873
  %cmp8 = icmp sgt i32 %44, 0, !dbg !873
  %45 = select i1 %cmp8, i64 18, i64 19, !dbg !875
  %46 = getelementptr inbounds [47 x i64]* @__llvm_gcov_ctr21, i64 0, i64 %45, !dbg !875
  %47 = load i64* %46, !dbg !875
  %48 = add i64 %47, 1, !dbg !875
  store i64 %48, i64* %46, !dbg !875
  br i1 %cmp8, label %land.lhs.true, label %if.end27, !dbg !875

land.lhs.true:                                    ; preds = %for.body7
  %49 = load i32* %x, align 4, !dbg !876
  %cmp9 = icmp slt i32 %49, 10, !dbg !876
  %50 = select i1 %cmp9, i64 20, i64 21, !dbg !875
  %51 = getelementptr inbounds [47 x i64]* @__llvm_gcov_ctr21, i64 0, i64 %50, !dbg !875
  %52 = load i64* %51, !dbg !875
  %53 = add i64 %52, 1, !dbg !875
  store i64 %53, i64* %51, !dbg !875
  br i1 %cmp9, label %land.lhs.true10, label %if.end27, !dbg !875

land.lhs.true10:                                  ; preds = %land.lhs.true
  %54 = load i32* %y, align 4, !dbg !878
  %cmp11 = icmp sgt i32 %54, 0, !dbg !878
  %55 = select i1 %cmp11, i64 22, i64 23, !dbg !875
  %56 = getelementptr inbounds [47 x i64]* @__llvm_gcov_ctr21, i64 0, i64 %55, !dbg !875
  %57 = load i64* %56, !dbg !875
  %58 = add i64 %57, 1, !dbg !875
  store i64 %58, i64* %56, !dbg !875
  br i1 %cmp11, label %land.lhs.true12, label %if.end27, !dbg !875

land.lhs.true12:                                  ; preds = %land.lhs.true10
  %59 = load i32* %y, align 4, !dbg !880
  %cmp13 = icmp slt i32 %59, 10, !dbg !880
  %60 = select i1 %cmp13, i64 24, i64 25, !dbg !875
  %61 = getelementptr inbounds [47 x i64]* @__llvm_gcov_ctr21, i64 0, i64 %60, !dbg !875
  %62 = load i64* %61, !dbg !875
  %63 = add i64 %62, 1, !dbg !875
  store i64 %63, i64* %61, !dbg !875
  br i1 %cmp13, label %if.then, label %if.end27, !dbg !875

if.then:                                          ; preds = %land.lhs.true12
  %64 = load i32* %y, align 4, !dbg !882
  %cmp14 = icmp slt i32 %64, 5, !dbg !882
  %65 = select i1 %cmp14, i64 26, i64 27, !dbg !885
  %66 = getelementptr inbounds [47 x i64]* @__llvm_gcov_ctr21, i64 0, i64 %65, !dbg !885
  %67 = load i64* %66, !dbg !885
  %68 = add i64 %67, 1, !dbg !885
  store i64 %68, i64* %66, !dbg !885
  br i1 %cmp14, label %if.then15, label %if.end19, !dbg !885

if.then15:                                        ; preds = %if.then
  %69 = load i32* %x, align 4, !dbg !886
  %70 = load i32* %y, align 4, !dbg !888
  %sub = sub nsw i32 5, %70, !dbg !889
  %sub16 = sub nsw i32 9, %sub, !dbg !890
  %cmp17 = icmp sgt i32 %69, %sub16, !dbg !886
  %71 = select i1 %cmp17, i64 28, i64 29, !dbg !891
  %72 = getelementptr inbounds [47 x i64]* @__llvm_gcov_ctr21, i64 0, i64 %71, !dbg !891
  %73 = load i64* %72, !dbg !891
  %74 = add i64 %73, 1, !dbg !891
  store i64 %74, i64* %72, !dbg !891
  br i1 %cmp17, label %if.then18, label %if.end, !dbg !891

if.then18:                                        ; preds = %if.then15
  %75 = load i64* getelementptr inbounds ([47 x i64]* @__llvm_gcov_ctr21, i64 0, i64 30), !dbg !892
  %76 = add i64 %75, 1, !dbg !892
  store i64 %76, i64* getelementptr inbounds ([47 x i64]* @__llvm_gcov_ctr21, i64 0, i64 30), !dbg !892
  store i32 1, i32* %out, align 4, !dbg !892
  br label %if.end, !dbg !892

if.end:                                           ; preds = %if.then18, %if.then15
  %77 = load i64* getelementptr inbounds ([47 x i64]* @__llvm_gcov_ctr21, i64 0, i64 31), !dbg !893
  %78 = add i64 %77, 1, !dbg !893
  store i64 %78, i64* getelementptr inbounds ([47 x i64]* @__llvm_gcov_ctr21, i64 0, i64 31), !dbg !893
  br label %if.end19, !dbg !893

if.end19:                                         ; preds = %if.end, %if.then
  %79 = load i32* %y, align 4, !dbg !895
  %cmp20 = icmp sgt i32 %79, 5, !dbg !895
  %80 = select i1 %cmp20, i64 32, i64 33, !dbg !897
  %81 = getelementptr inbounds [47 x i64]* @__llvm_gcov_ctr21, i64 0, i64 %80, !dbg !897
  %82 = load i64* %81, !dbg !897
  %83 = add i64 %82, 1, !dbg !897
  store i64 %83, i64* %81, !dbg !897
  br i1 %cmp20, label %if.then21, label %if.end26, !dbg !897

if.then21:                                        ; preds = %if.end19
  %84 = load i32* %x, align 4, !dbg !898
  %85 = load i32* %y, align 4, !dbg !900
  %sub22 = sub nsw i32 %85, 5, !dbg !900
  %cmp23 = icmp sle i32 %84, %sub22, !dbg !898
  %86 = select i1 %cmp23, i64 34, i64 35, !dbg !901
  %87 = getelementptr inbounds [47 x i64]* @__llvm_gcov_ctr21, i64 0, i64 %86, !dbg !901
  %88 = load i64* %87, !dbg !901
  %89 = add i64 %88, 1, !dbg !901
  store i64 %89, i64* %87, !dbg !901
  br i1 %cmp23, label %if.then24, label %if.end25, !dbg !901

if.then24:                                        ; preds = %if.then21
  %90 = load i64* getelementptr inbounds ([47 x i64]* @__llvm_gcov_ctr21, i64 0, i64 36), !dbg !902
  %91 = add i64 %90, 1, !dbg !902
  store i64 %91, i64* getelementptr inbounds ([47 x i64]* @__llvm_gcov_ctr21, i64 0, i64 36), !dbg !902
  store i32 1, i32* %out, align 4, !dbg !902
  br label %if.end25, !dbg !902

if.end25:                                         ; preds = %if.then24, %if.then21
  %92 = load i64* getelementptr inbounds ([47 x i64]* @__llvm_gcov_ctr21, i64 0, i64 37), !dbg !903
  %93 = add i64 %92, 1, !dbg !903
  store i64 %93, i64* getelementptr inbounds ([47 x i64]* @__llvm_gcov_ctr21, i64 0, i64 37), !dbg !903
  br label %if.end26, !dbg !903

if.end26:                                         ; preds = %if.end25, %if.end19
  %94 = load i64* getelementptr inbounds ([47 x i64]* @__llvm_gcov_ctr21, i64 0, i64 38), !dbg !905
  %95 = add i64 %94, 1, !dbg !905
  store i64 %95, i64* getelementptr inbounds ([47 x i64]* @__llvm_gcov_ctr21, i64 0, i64 38), !dbg !905
  br label %if.end27, !dbg !905

if.end27:                                         ; preds = %if.end26, %land.lhs.true12, %land.lhs.true10, %land.lhs.true, %for.body7
  %96 = load i32* %out, align 4, !dbg !906
  %tobool = icmp ne i32 %96, 0, !dbg !906
  %97 = select i1 %tobool, i64 39, i64 40, !dbg !908
  %98 = getelementptr inbounds [47 x i64]* @__llvm_gcov_ctr21, i64 0, i64 %97, !dbg !908
  %99 = load i64* %98, !dbg !908
  %100 = add i64 %99, 1, !dbg !908
  store i64 %100, i64* %98, !dbg !908
  br i1 %tobool, label %if.end85, label %if.then28, !dbg !908

if.then28:                                        ; preds = %if.end27
  %101 = load i64* getelementptr inbounds ([47 x i64]* @__llvm_gcov_ctr21, i64 0, i64 41), !dbg !909
  %102 = add i64 %101, 1, !dbg !909
  store i64 %102, i64* getelementptr inbounds ([47 x i64]* @__llvm_gcov_ctr21, i64 0, i64 41), !dbg !909
  %103 = load i32* %no, align 4, !dbg !909
  %idxprom29 = sext i32 %103 to i64, !dbg !911
  %104 = load %class.BitBoard64** @jump_lookups, align 8, !dbg !911
  %arrayidx30 = getelementptr inbounds %class.BitBoard64* %104, i64 %idxprom29, !dbg !911
  %105 = load i32* %x, align 4, !dbg !912
  %sub31 = sub nsw i32 %105, 2, !dbg !912
  %106 = load i32* %y, align 4, !dbg !913
  %sub32 = sub nsw i32 %106, 2, !dbg !913
  %call33 = call i32 @_Z16getHexxagonIndexii(i32 %sub31, i32 %sub32), !dbg !914
  call void @_ZN10BitBoard646setBitEi(%class.BitBoard64* %arrayidx30, i32 %call33), !dbg !911
  %107 = load i32* %no, align 4, !dbg !915
  %idxprom34 = sext i32 %107 to i64, !dbg !916
  %108 = load %class.BitBoard64** @jump_lookups, align 8, !dbg !916
  %arrayidx35 = getelementptr inbounds %class.BitBoard64* %108, i64 %idxprom34, !dbg !916
  %109 = load i32* %x, align 4, !dbg !917
  %sub36 = sub nsw i32 %109, 1, !dbg !917
  %110 = load i32* %y, align 4, !dbg !918
  %sub37 = sub nsw i32 %110, 2, !dbg !918
  %call38 = call i32 @_Z16getHexxagonIndexii(i32 %sub36, i32 %sub37), !dbg !919
  call void @_ZN10BitBoard646setBitEi(%class.BitBoard64* %arrayidx35, i32 %call38), !dbg !916
  %111 = load i32* %no, align 4, !dbg !920
  %idxprom39 = sext i32 %111 to i64, !dbg !921
  %112 = load %class.BitBoard64** @jump_lookups, align 8, !dbg !921
  %arrayidx40 = getelementptr inbounds %class.BitBoard64* %112, i64 %idxprom39, !dbg !921
  %113 = load i32* %x, align 4, !dbg !922
  %114 = load i32* %y, align 4, !dbg !923
  %sub41 = sub nsw i32 %114, 2, !dbg !923
  %call42 = call i32 @_Z16getHexxagonIndexii(i32 %113, i32 %sub41), !dbg !924
  call void @_ZN10BitBoard646setBitEi(%class.BitBoard64* %arrayidx40, i32 %call42), !dbg !921
  %115 = load i32* %no, align 4, !dbg !925
  %idxprom43 = sext i32 %115 to i64, !dbg !926
  %116 = load %class.BitBoard64** @jump_lookups, align 8, !dbg !926
  %arrayidx44 = getelementptr inbounds %class.BitBoard64* %116, i64 %idxprom43, !dbg !926
  %117 = load i32* %x, align 4, !dbg !927
  %sub45 = sub nsw i32 %117, 2, !dbg !927
  %118 = load i32* %y, align 4, !dbg !928
  %sub46 = sub nsw i32 %118, 1, !dbg !928
  %call47 = call i32 @_Z16getHexxagonIndexii(i32 %sub45, i32 %sub46), !dbg !929
  call void @_ZN10BitBoard646setBitEi(%class.BitBoard64* %arrayidx44, i32 %call47), !dbg !926
  %119 = load i32* %no, align 4, !dbg !930
  %idxprom48 = sext i32 %119 to i64, !dbg !931
  %120 = load %class.BitBoard64** @jump_lookups, align 8, !dbg !931
  %arrayidx49 = getelementptr inbounds %class.BitBoard64* %120, i64 %idxprom48, !dbg !931
  %121 = load i32* %x, align 4, !dbg !932
  %add = add nsw i32 %121, 1, !dbg !932
  %122 = load i32* %y, align 4, !dbg !933
  %sub50 = sub nsw i32 %122, 1, !dbg !933
  %call51 = call i32 @_Z16getHexxagonIndexii(i32 %add, i32 %sub50), !dbg !934
  call void @_ZN10BitBoard646setBitEi(%class.BitBoard64* %arrayidx49, i32 %call51), !dbg !931
  %123 = load i32* %no, align 4, !dbg !935
  %idxprom52 = sext i32 %123 to i64, !dbg !936
  %124 = load %class.BitBoard64** @jump_lookups, align 8, !dbg !936
  %arrayidx53 = getelementptr inbounds %class.BitBoard64* %124, i64 %idxprom52, !dbg !936
  %125 = load i32* %x, align 4, !dbg !937
  %sub54 = sub nsw i32 %125, 2, !dbg !937
  %126 = load i32* %y, align 4, !dbg !938
  %call55 = call i32 @_Z16getHexxagonIndexii(i32 %sub54, i32 %126), !dbg !939
  call void @_ZN10BitBoard646setBitEi(%class.BitBoard64* %arrayidx53, i32 %call55), !dbg !936
  %127 = load i32* %no, align 4, !dbg !940
  %idxprom56 = sext i32 %127 to i64, !dbg !941
  %128 = load %class.BitBoard64** @jump_lookups, align 8, !dbg !941
  %arrayidx57 = getelementptr inbounds %class.BitBoard64* %128, i64 %idxprom56, !dbg !941
  %129 = load i32* %x, align 4, !dbg !942
  %add58 = add nsw i32 %129, 2, !dbg !942
  %130 = load i32* %y, align 4, !dbg !943
  %call59 = call i32 @_Z16getHexxagonIndexii(i32 %add58, i32 %130), !dbg !944
  call void @_ZN10BitBoard646setBitEi(%class.BitBoard64* %arrayidx57, i32 %call59), !dbg !941
  %131 = load i32* %no, align 4, !dbg !945
  %idxprom60 = sext i32 %131 to i64, !dbg !946
  %132 = load %class.BitBoard64** @jump_lookups, align 8, !dbg !946
  %arrayidx61 = getelementptr inbounds %class.BitBoard64* %132, i64 %idxprom60, !dbg !946
  %133 = load i32* %x, align 4, !dbg !947
  %sub62 = sub nsw i32 %133, 1, !dbg !947
  %134 = load i32* %y, align 4, !dbg !948
  %add63 = add nsw i32 %134, 1, !dbg !948
  %call64 = call i32 @_Z16getHexxagonIndexii(i32 %sub62, i32 %add63), !dbg !949
  call void @_ZN10BitBoard646setBitEi(%class.BitBoard64* %arrayidx61, i32 %call64), !dbg !946
  %135 = load i32* %no, align 4, !dbg !950
  %idxprom65 = sext i32 %135 to i64, !dbg !951
  %136 = load %class.BitBoard64** @jump_lookups, align 8, !dbg !951
  %arrayidx66 = getelementptr inbounds %class.BitBoard64* %136, i64 %idxprom65, !dbg !951
  %137 = load i32* %x, align 4, !dbg !952
  %add67 = add nsw i32 %137, 2, !dbg !952
  %138 = load i32* %y, align 4, !dbg !953
  %add68 = add nsw i32 %138, 1, !dbg !953
  %call69 = call i32 @_Z16getHexxagonIndexii(i32 %add67, i32 %add68), !dbg !954
  call void @_ZN10BitBoard646setBitEi(%class.BitBoard64* %arrayidx66, i32 %call69), !dbg !951
  %139 = load i32* %no, align 4, !dbg !955
  %idxprom70 = sext i32 %139 to i64, !dbg !956
  %140 = load %class.BitBoard64** @jump_lookups, align 8, !dbg !956
  %arrayidx71 = getelementptr inbounds %class.BitBoard64* %140, i64 %idxprom70, !dbg !956
  %141 = load i32* %x, align 4, !dbg !957
  %142 = load i32* %y, align 4, !dbg !958
  %add72 = add nsw i32 %142, 2, !dbg !958
  %call73 = call i32 @_Z16getHexxagonIndexii(i32 %141, i32 %add72), !dbg !959
  call void @_ZN10BitBoard646setBitEi(%class.BitBoard64* %arrayidx71, i32 %call73), !dbg !956
  %143 = load i32* %no, align 4, !dbg !960
  %idxprom74 = sext i32 %143 to i64, !dbg !961
  %144 = load %class.BitBoard64** @jump_lookups, align 8, !dbg !961
  %arrayidx75 = getelementptr inbounds %class.BitBoard64* %144, i64 %idxprom74, !dbg !961
  %145 = load i32* %x, align 4, !dbg !962
  %add76 = add nsw i32 %145, 1, !dbg !962
  %146 = load i32* %y, align 4, !dbg !963
  %add77 = add nsw i32 %146, 2, !dbg !963
  %call78 = call i32 @_Z16getHexxagonIndexii(i32 %add76, i32 %add77), !dbg !964
  call void @_ZN10BitBoard646setBitEi(%class.BitBoard64* %arrayidx75, i32 %call78), !dbg !961
  %147 = load i32* %no, align 4, !dbg !965
  %idxprom79 = sext i32 %147 to i64, !dbg !966
  %148 = load %class.BitBoard64** @jump_lookups, align 8, !dbg !966
  %arrayidx80 = getelementptr inbounds %class.BitBoard64* %148, i64 %idxprom79, !dbg !966
  %149 = load i32* %x, align 4, !dbg !967
  %add81 = add nsw i32 %149, 2, !dbg !967
  %150 = load i32* %y, align 4, !dbg !968
  %add82 = add nsw i32 %150, 2, !dbg !968
  %call83 = call i32 @_Z16getHexxagonIndexii(i32 %add81, i32 %add82), !dbg !969
  call void @_ZN10BitBoard646setBitEi(%class.BitBoard64* %arrayidx80, i32 %call83), !dbg !966
  %151 = load i32* %no, align 4, !dbg !970
  %inc84 = add nsw i32 %151, 1, !dbg !970
  store i32 %inc84, i32* %no, align 4, !dbg !970
  br label %if.end85, !dbg !971

if.end85:                                         ; preds = %if.then28, %if.end27
  %152 = load i64* getelementptr inbounds ([47 x i64]* @__llvm_gcov_ctr21, i64 0, i64 42), !dbg !972
  %153 = add i64 %152, 1, !dbg !972
  store i64 %153, i64* getelementptr inbounds ([47 x i64]* @__llvm_gcov_ctr21, i64 0, i64 42), !dbg !972
  br label %for.inc86, !dbg !972

for.inc86:                                        ; preds = %if.end85
  %154 = load i64* getelementptr inbounds ([47 x i64]* @__llvm_gcov_ctr21, i64 0, i64 43), !dbg !973
  %155 = add i64 %154, 1, !dbg !973
  store i64 %155, i64* getelementptr inbounds ([47 x i64]* @__llvm_gcov_ctr21, i64 0, i64 43), !dbg !973
  %156 = load i32* %x, align 4, !dbg !973
  %inc87 = add nsw i32 %156, 1, !dbg !973
  store i32 %inc87, i32* %x, align 4, !dbg !973
  br label %for.cond5, !dbg !974

for.end88:                                        ; preds = %for.cond5
  %157 = load i64* getelementptr inbounds ([47 x i64]* @__llvm_gcov_ctr21, i64 0, i64 44), !dbg !975
  %158 = add i64 %157, 1, !dbg !975
  store i64 %158, i64* getelementptr inbounds ([47 x i64]* @__llvm_gcov_ctr21, i64 0, i64 44), !dbg !975
  br label %for.inc89, !dbg !975

for.inc89:                                        ; preds = %for.end88
  %159 = load i64* getelementptr inbounds ([47 x i64]* @__llvm_gcov_ctr21, i64 0, i64 45), !dbg !976
  %160 = add i64 %159, 1, !dbg !976
  store i64 %160, i64* getelementptr inbounds ([47 x i64]* @__llvm_gcov_ctr21, i64 0, i64 45), !dbg !976
  %161 = load i32* %y, align 4, !dbg !976
  %inc90 = add nsw i32 %161, 1, !dbg !976
  store i32 %inc90, i32* %y, align 4, !dbg !976
  br label %for.cond2, !dbg !977

for.end91:                                        ; preds = %for.cond2
  %162 = load i64* getelementptr inbounds ([47 x i64]* @__llvm_gcov_ctr21, i64 0, i64 46), !dbg !850
  %163 = add i64 %162, 1, !dbg !850
  store i64 %163, i64* getelementptr inbounds ([47 x i64]* @__llvm_gcov_ctr21, i64 0, i64 46), !dbg !850
  ret void, !dbg !850

eh.resume:                                        ; preds = %lpad
  %exn = load i8** %exn.slot, !dbg !978
  %sel = load i32* %ehselector.slot, !dbg !978
  %lpad.val = insertvalue { i8*, i32 } undef, i8* %exn, 0, !dbg !978
  %lpad.val92 = insertvalue { i8*, i32 } %lpad.val, i32 %sel, 1, !dbg !978
  resume { i8*, i32 } %lpad.val92, !dbg !978
}

; Function Attrs: uwtable
define void @_ZN13HexxagonBoardC2ERKS_(%class.HexxagonBoard* %this, %class.HexxagonBoard* dereferenceable(16) %copy) unnamed_addr #4 align 2 {
entry:
  %0 = load i64* getelementptr inbounds ([2 x i64]* @__llvm_gcov_ctr24, i64 0, i64 0)
  %1 = add i64 %0, 1
  store i64 %1, i64* getelementptr inbounds ([2 x i64]* @__llvm_gcov_ctr24, i64 0, i64 0)
  %this.addr = alloca %class.HexxagonBoard*, align 8
  %copy.addr = alloca %class.HexxagonBoard*, align 8
  %coerce = alloca %class.BitBoard64, align 4
  %coerce7 = alloca %class.BitBoard64, align 4
  br label %2

; <label>:2                                       ; preds = %entry
  %3 = load i64* getelementptr inbounds ([2 x i64]* @__llvm_gcov_ctr24, i64 0, i64 1)
  %4 = add i64 %3, 1
  store i64 %4, i64* getelementptr inbounds ([2 x i64]* @__llvm_gcov_ctr24, i64 0, i64 1)
  store %class.HexxagonBoard* %this, %class.HexxagonBoard** %this.addr, align 8
  call void @llvm.dbg.declare(metadata %class.HexxagonBoard** %this.addr, metadata !979, metadata !605), !dbg !981
  store %class.HexxagonBoard* %copy, %class.HexxagonBoard** %copy.addr, align 8
  call void @llvm.dbg.declare(metadata %class.HexxagonBoard** %copy.addr, metadata !982, metadata !605), !dbg !983
  %this1 = load %class.HexxagonBoard** %this.addr
  %board = getelementptr inbounds %class.HexxagonBoard* %this1, i32 0, i32 0, !dbg !984
  call void @_ZN10BitBoard64C2Ev(%class.BitBoard64* %board), !dbg !984
  %color = getelementptr inbounds %class.HexxagonBoard* %this1, i32 0, i32 1, !dbg !984
  call void @_ZN10BitBoard64C2Ev(%class.BitBoard64* %color), !dbg !984
  %board2 = getelementptr inbounds %class.HexxagonBoard* %this1, i32 0, i32 0, !dbg !985
  %5 = load %class.HexxagonBoard** %copy.addr, align 8, !dbg !985
  %board3 = getelementptr inbounds %class.HexxagonBoard* %5, i32 0, i32 0, !dbg !985
  %call = call i64 @_ZN10BitBoard64aSERKS_(%class.BitBoard64* %board2, %class.BitBoard64* dereferenceable(8) %board3), !dbg !985
  %6 = bitcast %class.BitBoard64* %coerce to i64*, !dbg !985
  store i64 %call, i64* %6, align 1, !dbg !985
  %color4 = getelementptr inbounds %class.HexxagonBoard* %this1, i32 0, i32 1, !dbg !987
  %7 = load %class.HexxagonBoard** %copy.addr, align 8, !dbg !987
  %color5 = getelementptr inbounds %class.HexxagonBoard* %7, i32 0, i32 1, !dbg !987
  %call6 = call i64 @_ZN10BitBoard64aSERKS_(%class.BitBoard64* %color4, %class.BitBoard64* dereferenceable(8) %color5), !dbg !987
  %8 = bitcast %class.BitBoard64* %coerce7 to i64*, !dbg !987
  store i64 %call6, i64* %8, align 1, !dbg !987
  ret void, !dbg !988
}

; Function Attrs: uwtable
define void @_ZN13HexxagonBoardaSERKS_(%class.HexxagonBoard* noalias sret %agg.result, %class.HexxagonBoard* %this, %class.HexxagonBoard* dereferenceable(16) %right) #4 align 2 {
entry:
  %0 = load i64* getelementptr inbounds ([2 x i64]* @__llvm_gcov_ctr25, i64 0, i64 0)
  %1 = add i64 %0, 1
  store i64 %1, i64* getelementptr inbounds ([2 x i64]* @__llvm_gcov_ctr25, i64 0, i64 0)
  %this.addr = alloca %class.HexxagonBoard*, align 8
  %right.addr = alloca %class.HexxagonBoard*, align 8
  %coerce = alloca %class.BitBoard64, align 4
  %coerce5 = alloca %class.BitBoard64, align 4
  br label %2

; <label>:2                                       ; preds = %entry
  %3 = load i64* getelementptr inbounds ([2 x i64]* @__llvm_gcov_ctr25, i64 0, i64 1)
  %4 = add i64 %3, 1
  store i64 %4, i64* getelementptr inbounds ([2 x i64]* @__llvm_gcov_ctr25, i64 0, i64 1)
  store %class.HexxagonBoard* %this, %class.HexxagonBoard** %this.addr, align 8
  call void @llvm.dbg.declare(metadata %class.HexxagonBoard** %this.addr, metadata !989, metadata !605), !dbg !990
  store %class.HexxagonBoard* %right, %class.HexxagonBoard** %right.addr, align 8
  call void @llvm.dbg.declare(metadata %class.HexxagonBoard** %right.addr, metadata !991, metadata !605), !dbg !992
  %this1 = load %class.HexxagonBoard** %this.addr
  %color = getelementptr inbounds %class.HexxagonBoard* %this1, i32 0, i32 1, !dbg !993
  %5 = load %class.HexxagonBoard** %right.addr, align 8, !dbg !993
  %color2 = getelementptr inbounds %class.HexxagonBoard* %5, i32 0, i32 1, !dbg !993
  %call = call i64 @_ZN10BitBoard64aSERKS_(%class.BitBoard64* %color, %class.BitBoard64* dereferenceable(8) %color2), !dbg !993
  %6 = bitcast %class.BitBoard64* %coerce to i64*, !dbg !993
  store i64 %call, i64* %6, align 1, !dbg !993
  %board = getelementptr inbounds %class.HexxagonBoard* %this1, i32 0, i32 0, !dbg !994
  %7 = load %class.HexxagonBoard** %right.addr, align 8, !dbg !994
  %board3 = getelementptr inbounds %class.HexxagonBoard* %7, i32 0, i32 0, !dbg !994
  %call4 = call i64 @_ZN10BitBoard64aSERKS_(%class.BitBoard64* %board, %class.BitBoard64* dereferenceable(8) %board3), !dbg !994
  %8 = bitcast %class.BitBoard64* %coerce5 to i64*, !dbg !994
  store i64 %call4, i64* %8, align 1, !dbg !994
  call void @_ZN13HexxagonBoardC1ERKS_(%class.HexxagonBoard* %agg.result, %class.HexxagonBoard* dereferenceable(16) %this1), !dbg !995
  ret void, !dbg !995
}

; Function Attrs: uwtable
define void @_ZN13HexxagonBoard4initEv(%class.HexxagonBoard* %this) #4 align 2 {
entry:
  %0 = load i64* getelementptr inbounds ([2 x i64]* @__llvm_gcov_ctr26, i64 0, i64 0)
  %1 = add i64 %0, 1
  store i64 %1, i64* getelementptr inbounds ([2 x i64]* @__llvm_gcov_ctr26, i64 0, i64 0)
  %this.addr = alloca %class.HexxagonBoard*, align 8
  %ref.tmp = alloca %class.BitBoard64, align 4
  %coerce = alloca %class.BitBoard64, align 4
  %ref.tmp2 = alloca %class.BitBoard64, align 4
  %coerce4 = alloca %class.BitBoard64, align 4
  br label %2

; <label>:2                                       ; preds = %entry
  %3 = load i64* getelementptr inbounds ([2 x i64]* @__llvm_gcov_ctr26, i64 0, i64 1)
  %4 = add i64 %3, 1
  store i64 %4, i64* getelementptr inbounds ([2 x i64]* @__llvm_gcov_ctr26, i64 0, i64 1)
  store %class.HexxagonBoard* %this, %class.HexxagonBoard** %this.addr, align 8
  call void @llvm.dbg.declare(metadata %class.HexxagonBoard** %this.addr, metadata !996, metadata !605), !dbg !997
  %this1 = load %class.HexxagonBoard** %this.addr
  %board = getelementptr inbounds %class.HexxagonBoard* %this1, i32 0, i32 0, !dbg !998
  call void @_ZN10BitBoard64C2Ejj(%class.BitBoard64* %ref.tmp, i32 0, i32 0), !dbg !998
  %call = call i64 @_ZN10BitBoard64aSERKS_(%class.BitBoard64* %board, %class.BitBoard64* dereferenceable(8) %ref.tmp), !dbg !998
  %5 = bitcast %class.BitBoard64* %coerce to i64*, !dbg !998
  store i64 %call, i64* %5, align 1, !dbg !998
  %color = getelementptr inbounds %class.HexxagonBoard* %this1, i32 0, i32 1, !dbg !999
  call void @_ZN10BitBoard64C2Ejj(%class.BitBoard64* %ref.tmp2, i32 0, i32 0), !dbg !999
  %call3 = call i64 @_ZN10BitBoard64aSERKS_(%class.BitBoard64* %color, %class.BitBoard64* dereferenceable(8) %ref.tmp2), !dbg !999
  %6 = bitcast %class.BitBoard64* %coerce4 to i64*, !dbg !999
  store i64 %call3, i64* %6, align 1, !dbg !999
  %board5 = getelementptr inbounds %class.HexxagonBoard* %this1, i32 0, i32 0, !dbg !1000
  call void @_ZN10BitBoard646setBitEi(%class.BitBoard64* %board5, i32 0), !dbg !1000
  %color6 = getelementptr inbounds %class.HexxagonBoard* %this1, i32 0, i32 1, !dbg !1001
  call void @_ZN10BitBoard646setBitEi(%class.BitBoard64* %color6, i32 0), !dbg !1001
  %board7 = getelementptr inbounds %class.HexxagonBoard* %this1, i32 0, i32 0, !dbg !1002
  call void @_ZN10BitBoard646setBitEi(%class.BitBoard64* %board7, i32 34), !dbg !1002
  %color8 = getelementptr inbounds %class.HexxagonBoard* %this1, i32 0, i32 1, !dbg !1003
  call void @_ZN10BitBoard646setBitEi(%class.BitBoard64* %color8, i32 34), !dbg !1003
  %board9 = getelementptr inbounds %class.HexxagonBoard* %this1, i32 0, i32 0, !dbg !1004
  call void @_ZN10BitBoard646setBitEi(%class.BitBoard64* %board9, i32 56), !dbg !1004
  %color10 = getelementptr inbounds %class.HexxagonBoard* %this1, i32 0, i32 1, !dbg !1005
  call void @_ZN10BitBoard646setBitEi(%class.BitBoard64* %color10, i32 56), !dbg !1005
  %board11 = getelementptr inbounds %class.HexxagonBoard* %this1, i32 0, i32 0, !dbg !1006
  call void @_ZN10BitBoard646setBitEi(%class.BitBoard64* %board11, i32 4), !dbg !1006
  %board12 = getelementptr inbounds %class.HexxagonBoard* %this1, i32 0, i32 0, !dbg !1007
  call void @_ZN10BitBoard646setBitEi(%class.BitBoard64* %board12, i32 26), !dbg !1007
  %board13 = getelementptr inbounds %class.HexxagonBoard* %this1, i32 0, i32 0, !dbg !1008
  call void @_ZN10BitBoard646setBitEi(%class.BitBoard64* %board13, i32 60), !dbg !1008
  ret void, !dbg !1009
}

; Function Attrs: uwtable
define i32 @_ZN13HexxagonBoard11countBricksEi(%class.HexxagonBoard* %this, i32 %player) #4 align 2 {
entry:
  %0 = load i64* getelementptr inbounds ([26 x i64]* @__llvm_gcov_ctr27, i64 0, i64 0)
  %1 = add i64 %0, 1
  store i64 %1, i64* getelementptr inbounds ([26 x i64]* @__llvm_gcov_ctr27, i64 0, i64 0)
  %retval = alloca i32, align 4
  %this.addr = alloca %class.HexxagonBoard*, align 8
  %player.addr = alloca i32, align 4
  %good = alloca i32, align 4
  %bad = alloca i32, align 4
  %i = alloca i32, align 4
  br label %2

; <label>:2                                       ; preds = %entry
  %3 = load i64* getelementptr inbounds ([26 x i64]* @__llvm_gcov_ctr27, i64 0, i64 1)
  %4 = add i64 %3, 1
  store i64 %4, i64* getelementptr inbounds ([26 x i64]* @__llvm_gcov_ctr27, i64 0, i64 1)
  store %class.HexxagonBoard* %this, %class.HexxagonBoard** %this.addr, align 8
  call void @llvm.dbg.declare(metadata %class.HexxagonBoard** %this.addr, metadata !1010, metadata !605), !dbg !1011
  store i32 %player, i32* %player.addr, align 4
  call void @llvm.dbg.declare(metadata i32* %player.addr, metadata !1012, metadata !605), !dbg !1013
  %this1 = load %class.HexxagonBoard** %this.addr
  call void @llvm.dbg.declare(metadata i32* %good, metadata !1014, metadata !605), !dbg !1015
  store i32 0, i32* %good, align 4, !dbg !1015
  call void @llvm.dbg.declare(metadata i32* %bad, metadata !1016, metadata !605), !dbg !1017
  store i32 0, i32* %bad, align 4, !dbg !1017
  call void @llvm.dbg.declare(metadata i32* %i, metadata !1018, metadata !605), !dbg !1020
  store i32 0, i32* %i, align 4, !dbg !1020
  br label %for.cond, !dbg !1021

for.cond:                                         ; preds = %for.inc, %2
  %5 = load i32* %i, align 4, !dbg !1022
  %cmp = icmp slt i32 %5, 61, !dbg !1022
  %6 = select i1 %cmp, i64 2, i64 3, !dbg !1026
  %7 = getelementptr inbounds [26 x i64]* @__llvm_gcov_ctr27, i64 0, i64 %6, !dbg !1026
  %8 = load i64* %7, !dbg !1026
  %9 = add i64 %8, 1, !dbg !1026
  store i64 %9, i64* %7, !dbg !1026
  br i1 %cmp, label %for.body, label %for.end, !dbg !1026

for.body:                                         ; preds = %for.cond
  %board = getelementptr inbounds %class.HexxagonBoard* %this1, i32 0, i32 0, !dbg !1027
  %10 = load i32* %i, align 4, !dbg !1030
  %call = call i32 @_ZN10BitBoard646getBitEi(%class.BitBoard64* %board, i32 %10), !dbg !1027
  %tobool = icmp ne i32 %call, 0, !dbg !1027
  %11 = select i1 %tobool, i64 4, i64 5, !dbg !1031
  %12 = getelementptr inbounds [26 x i64]* @__llvm_gcov_ctr27, i64 0, i64 %11, !dbg !1031
  %13 = load i64* %12, !dbg !1031
  %14 = add i64 %13, 1, !dbg !1031
  store i64 %14, i64* %12, !dbg !1031
  br i1 %tobool, label %if.then, label %if.end6, !dbg !1031

if.then:                                          ; preds = %for.body
  %color = getelementptr inbounds %class.HexxagonBoard* %this1, i32 0, i32 1, !dbg !1032
  %15 = load i32* %i, align 4, !dbg !1035
  %call2 = call i32 @_ZN10BitBoard646getBitEi(%class.BitBoard64* %color, i32 %15), !dbg !1032
  %tobool3 = icmp ne i32 %call2, 0, !dbg !1032
  %16 = select i1 %tobool3, i64 6, i64 7, !dbg !1036
  %17 = getelementptr inbounds [26 x i64]* @__llvm_gcov_ctr27, i64 0, i64 %16, !dbg !1036
  %18 = load i64* %17, !dbg !1036
  %19 = add i64 %18, 1, !dbg !1036
  store i64 %19, i64* %17, !dbg !1036
  br i1 %tobool3, label %if.then4, label %if.else, !dbg !1036

if.then4:                                         ; preds = %if.then
  %20 = load i64* getelementptr inbounds ([26 x i64]* @__llvm_gcov_ctr27, i64 0, i64 8), !dbg !1037
  %21 = add i64 %20, 1, !dbg !1037
  store i64 %21, i64* getelementptr inbounds ([26 x i64]* @__llvm_gcov_ctr27, i64 0, i64 8), !dbg !1037
  %22 = load i32* %good, align 4, !dbg !1037
  %inc = add nsw i32 %22, 1, !dbg !1037
  store i32 %inc, i32* %good, align 4, !dbg !1037
  br label %if.end, !dbg !1037

if.else:                                          ; preds = %if.then
  %23 = load i64* getelementptr inbounds ([26 x i64]* @__llvm_gcov_ctr27, i64 0, i64 9), !dbg !1038
  %24 = add i64 %23, 1, !dbg !1038
  store i64 %24, i64* getelementptr inbounds ([26 x i64]* @__llvm_gcov_ctr27, i64 0, i64 9), !dbg !1038
  %25 = load i32* %bad, align 4, !dbg !1038
  %inc5 = add nsw i32 %25, 1, !dbg !1038
  store i32 %inc5, i32* %bad, align 4, !dbg !1038
  br label %if.end

if.end:                                           ; preds = %if.else, %if.then4
  %26 = load i64* getelementptr inbounds ([26 x i64]* @__llvm_gcov_ctr27, i64 0, i64 10), !dbg !1039
  %27 = add i64 %26, 1, !dbg !1039
  store i64 %27, i64* getelementptr inbounds ([26 x i64]* @__llvm_gcov_ctr27, i64 0, i64 10), !dbg !1039
  br label %if.end6, !dbg !1039

if.end6:                                          ; preds = %if.end, %for.body
  %28 = load i64* getelementptr inbounds ([26 x i64]* @__llvm_gcov_ctr27, i64 0, i64 11), !dbg !1040
  %29 = add i64 %28, 1, !dbg !1040
  store i64 %29, i64* getelementptr inbounds ([26 x i64]* @__llvm_gcov_ctr27, i64 0, i64 11), !dbg !1040
  br label %for.inc, !dbg !1040

for.inc:                                          ; preds = %if.end6
  %30 = load i64* getelementptr inbounds ([26 x i64]* @__llvm_gcov_ctr27, i64 0, i64 12), !dbg !1041
  %31 = add i64 %30, 1, !dbg !1041
  store i64 %31, i64* getelementptr inbounds ([26 x i64]* @__llvm_gcov_ctr27, i64 0, i64 12), !dbg !1041
  %32 = load i32* %i, align 4, !dbg !1041
  %inc7 = add nsw i32 %32, 1, !dbg !1041
  store i32 %inc7, i32* %i, align 4, !dbg !1041
  br label %for.cond, !dbg !1042

for.end:                                          ; preds = %for.cond
  %33 = load i32* %player.addr, align 4, !dbg !1043
  %cmp8 = icmp eq i32 %33, 0, !dbg !1043
  %34 = select i1 %cmp8, i64 13, i64 14, !dbg !1045
  %35 = getelementptr inbounds [26 x i64]* @__llvm_gcov_ctr27, i64 0, i64 %34, !dbg !1045
  %36 = load i64* %35, !dbg !1045
  %37 = add i64 %36, 1, !dbg !1045
  store i64 %37, i64* %35, !dbg !1045
  br i1 %cmp8, label %if.then9, label %if.else10, !dbg !1045

if.then9:                                         ; preds = %for.end
  %38 = load i64* getelementptr inbounds ([26 x i64]* @__llvm_gcov_ctr27, i64 0, i64 15), !dbg !1046
  %39 = add i64 %38, 1, !dbg !1046
  store i64 %39, i64* getelementptr inbounds ([26 x i64]* @__llvm_gcov_ctr27, i64 0, i64 15), !dbg !1046
  %40 = load i32* %good, align 4, !dbg !1046
  %41 = load i32* %bad, align 4, !dbg !1047
  %sub = sub nsw i32 %40, %41, !dbg !1046
  store i32 %sub, i32* %retval, !dbg !1048
  br label %return, !dbg !1048

if.else10:                                        ; preds = %for.end
  %42 = load i32* %player.addr, align 4, !dbg !1049
  %cmp11 = icmp eq i32 %42, 1, !dbg !1049
  %43 = select i1 %cmp11, i64 16, i64 17, !dbg !1051
  %44 = getelementptr inbounds [26 x i64]* @__llvm_gcov_ctr27, i64 0, i64 %43, !dbg !1051
  %45 = load i64* %44, !dbg !1051
  %46 = add i64 %45, 1, !dbg !1051
  store i64 %46, i64* %44, !dbg !1051
  br i1 %cmp11, label %if.then12, label %if.else13, !dbg !1051

if.then12:                                        ; preds = %if.else10
  %47 = load i64* getelementptr inbounds ([26 x i64]* @__llvm_gcov_ctr27, i64 0, i64 18), !dbg !1052
  %48 = add i64 %47, 1, !dbg !1052
  store i64 %48, i64* getelementptr inbounds ([26 x i64]* @__llvm_gcov_ctr27, i64 0, i64 18), !dbg !1052
  %49 = load i32* %good, align 4, !dbg !1052
  store i32 %49, i32* %retval, !dbg !1053
  br label %return, !dbg !1053

if.else13:                                        ; preds = %if.else10
  %50 = load i32* %player.addr, align 4, !dbg !1054
  %cmp14 = icmp eq i32 %50, 2, !dbg !1054
  %51 = select i1 %cmp14, i64 19, i64 20, !dbg !1056
  %52 = getelementptr inbounds [26 x i64]* @__llvm_gcov_ctr27, i64 0, i64 %51, !dbg !1056
  %53 = load i64* %52, !dbg !1056
  %54 = add i64 %53, 1, !dbg !1056
  store i64 %54, i64* %52, !dbg !1056
  br i1 %cmp14, label %if.then15, label %if.end16, !dbg !1056

if.then15:                                        ; preds = %if.else13
  %55 = load i64* getelementptr inbounds ([26 x i64]* @__llvm_gcov_ctr27, i64 0, i64 21), !dbg !1057
  %56 = add i64 %55, 1, !dbg !1057
  store i64 %56, i64* getelementptr inbounds ([26 x i64]* @__llvm_gcov_ctr27, i64 0, i64 21), !dbg !1057
  %57 = load i32* %bad, align 4, !dbg !1057
  store i32 %57, i32* %retval, !dbg !1058
  br label %return, !dbg !1058

if.end16:                                         ; preds = %if.else13
  %58 = load i64* getelementptr inbounds ([26 x i64]* @__llvm_gcov_ctr27, i64 0, i64 22)
  %59 = add i64 %58, 1
  store i64 %59, i64* getelementptr inbounds ([26 x i64]* @__llvm_gcov_ctr27, i64 0, i64 22)
  br label %if.end17

if.end17:                                         ; preds = %if.end16
  %60 = load i64* getelementptr inbounds ([26 x i64]* @__llvm_gcov_ctr27, i64 0, i64 23)
  %61 = add i64 %60, 1
  store i64 %61, i64* getelementptr inbounds ([26 x i64]* @__llvm_gcov_ctr27, i64 0, i64 23)
  br label %if.end18

if.end18:                                         ; preds = %if.end17
  %62 = load i64* getelementptr inbounds ([26 x i64]* @__llvm_gcov_ctr27, i64 0, i64 24), !dbg !1059
  %63 = add i64 %62, 1, !dbg !1059
  store i64 %63, i64* getelementptr inbounds ([26 x i64]* @__llvm_gcov_ctr27, i64 0, i64 24), !dbg !1059
  store i32 0, i32* %retval, !dbg !1059
  br label %return, !dbg !1059

return:                                           ; preds = %if.end18, %if.then15, %if.then12, %if.then9
  %64 = load i64* getelementptr inbounds ([26 x i64]* @__llvm_gcov_ctr27, i64 0, i64 25), !dbg !1060
  %65 = add i64 %64, 1, !dbg !1060
  store i64 %65, i64* getelementptr inbounds ([26 x i64]* @__llvm_gcov_ctr27, i64 0, i64 25), !dbg !1060
  %66 = load i32* %retval, !dbg !1060
  ret i32 %66, !dbg !1060
}

declare i32 @_ZN10BitBoard646getBitEi(%class.BitBoard64*, i32) #0

; Function Attrs: uwtable
define i32 @_ZN13HexxagonBoard8evaluateEv(%class.HexxagonBoard* %this) #4 align 2 {
entry:
  %0 = load i64* getelementptr inbounds ([36 x i64]* @__llvm_gcov_ctr28, i64 0, i64 0)
  %1 = add i64 %0, 1
  store i64 %1, i64* getelementptr inbounds ([36 x i64]* @__llvm_gcov_ctr28, i64 0, i64 0)
  %this.addr = alloca %class.HexxagonBoard*, align 8
  %good = alloca i32, align 4
  %bad = alloca i32, align 4
  %count = alloca i32, align 4
  %i = alloca i32, align 4
  %score = alloca i32, align 4
  br label %2

; <label>:2                                       ; preds = %entry
  %3 = load i64* getelementptr inbounds ([36 x i64]* @__llvm_gcov_ctr28, i64 0, i64 1)
  %4 = add i64 %3, 1
  store i64 %4, i64* getelementptr inbounds ([36 x i64]* @__llvm_gcov_ctr28, i64 0, i64 1)
  store %class.HexxagonBoard* %this, %class.HexxagonBoard** %this.addr, align 8
  call void @llvm.dbg.declare(metadata %class.HexxagonBoard** %this.addr, metadata !1061, metadata !605), !dbg !1062
  %this1 = load %class.HexxagonBoard** %this.addr
  call void @llvm.dbg.declare(metadata i32* %good, metadata !1063, metadata !605), !dbg !1064
  store i32 0, i32* %good, align 4, !dbg !1064
  call void @llvm.dbg.declare(metadata i32* %bad, metadata !1065, metadata !605), !dbg !1066
  store i32 0, i32* %bad, align 4, !dbg !1066
  call void @llvm.dbg.declare(metadata i32* %count, metadata !1067, metadata !605), !dbg !1068
  store i32 0, i32* %count, align 4, !dbg !1068
  call void @llvm.dbg.declare(metadata i32* %i, metadata !1069, metadata !605), !dbg !1071
  store i32 0, i32* %i, align 4, !dbg !1071
  br label %for.cond, !dbg !1072

for.cond:                                         ; preds = %for.inc, %2
  %5 = load i32* %i, align 4, !dbg !1073
  %cmp = icmp slt i32 %5, 61, !dbg !1073
  %6 = select i1 %cmp, i64 2, i64 3, !dbg !1077
  %7 = getelementptr inbounds [36 x i64]* @__llvm_gcov_ctr28, i64 0, i64 %6, !dbg !1077
  %8 = load i64* %7, !dbg !1077
  %9 = add i64 %8, 1, !dbg !1077
  store i64 %9, i64* %7, !dbg !1077
  br i1 %cmp, label %for.body, label %for.end, !dbg !1077

for.body:                                         ; preds = %for.cond
  %board = getelementptr inbounds %class.HexxagonBoard* %this1, i32 0, i32 0, !dbg !1078
  %10 = load i32* %i, align 4, !dbg !1081
  %call = call i32 @_ZN10BitBoard646getBitEi(%class.BitBoard64* %board, i32 %10), !dbg !1078
  %tobool = icmp ne i32 %call, 0, !dbg !1078
  %11 = select i1 %tobool, i64 4, i64 5, !dbg !1082
  %12 = getelementptr inbounds [36 x i64]* @__llvm_gcov_ctr28, i64 0, i64 %11, !dbg !1082
  %13 = load i64* %12, !dbg !1082
  %14 = add i64 %13, 1, !dbg !1082
  store i64 %14, i64* %12, !dbg !1082
  br i1 %tobool, label %if.then, label %if.end7, !dbg !1082

if.then:                                          ; preds = %for.body
  %15 = load i32* %count, align 4, !dbg !1083
  %inc = add nsw i32 %15, 1, !dbg !1083
  store i32 %inc, i32* %count, align 4, !dbg !1083
  %color = getelementptr inbounds %class.HexxagonBoard* %this1, i32 0, i32 1, !dbg !1085
  %16 = load i32* %i, align 4, !dbg !1087
  %call2 = call i32 @_ZN10BitBoard646getBitEi(%class.BitBoard64* %color, i32 %16), !dbg !1085
  %tobool3 = icmp ne i32 %call2, 0, !dbg !1085
  %17 = select i1 %tobool3, i64 6, i64 7, !dbg !1088
  %18 = getelementptr inbounds [36 x i64]* @__llvm_gcov_ctr28, i64 0, i64 %17, !dbg !1088
  %19 = load i64* %18, !dbg !1088
  %20 = add i64 %19, 1, !dbg !1088
  store i64 %20, i64* %18, !dbg !1088
  br i1 %tobool3, label %if.then4, label %if.else, !dbg !1088

if.then4:                                         ; preds = %if.then
  %21 = load i64* getelementptr inbounds ([36 x i64]* @__llvm_gcov_ctr28, i64 0, i64 8), !dbg !1089
  %22 = add i64 %21, 1, !dbg !1089
  store i64 %22, i64* getelementptr inbounds ([36 x i64]* @__llvm_gcov_ctr28, i64 0, i64 8), !dbg !1089
  %23 = load i32* %good, align 4, !dbg !1089
  %inc5 = add nsw i32 %23, 1, !dbg !1089
  store i32 %inc5, i32* %good, align 4, !dbg !1089
  br label %if.end, !dbg !1089

if.else:                                          ; preds = %if.then
  %24 = load i64* getelementptr inbounds ([36 x i64]* @__llvm_gcov_ctr28, i64 0, i64 9), !dbg !1090
  %25 = add i64 %24, 1, !dbg !1090
  store i64 %25, i64* getelementptr inbounds ([36 x i64]* @__llvm_gcov_ctr28, i64 0, i64 9), !dbg !1090
  %26 = load i32* %bad, align 4, !dbg !1090
  %inc6 = add nsw i32 %26, 1, !dbg !1090
  store i32 %inc6, i32* %bad, align 4, !dbg !1090
  br label %if.end

if.end:                                           ; preds = %if.else, %if.then4
  %27 = load i64* getelementptr inbounds ([36 x i64]* @__llvm_gcov_ctr28, i64 0, i64 10), !dbg !1091
  %28 = add i64 %27, 1, !dbg !1091
  store i64 %28, i64* getelementptr inbounds ([36 x i64]* @__llvm_gcov_ctr28, i64 0, i64 10), !dbg !1091
  br label %if.end7, !dbg !1091

if.end7:                                          ; preds = %if.end, %for.body
  %29 = load i64* getelementptr inbounds ([36 x i64]* @__llvm_gcov_ctr28, i64 0, i64 11), !dbg !1092
  %30 = add i64 %29, 1, !dbg !1092
  store i64 %30, i64* getelementptr inbounds ([36 x i64]* @__llvm_gcov_ctr28, i64 0, i64 11), !dbg !1092
  br label %for.inc, !dbg !1092

for.inc:                                          ; preds = %if.end7
  %31 = load i64* getelementptr inbounds ([36 x i64]* @__llvm_gcov_ctr28, i64 0, i64 12), !dbg !1093
  %32 = add i64 %31, 1, !dbg !1093
  store i64 %32, i64* getelementptr inbounds ([36 x i64]* @__llvm_gcov_ctr28, i64 0, i64 12), !dbg !1093
  %33 = load i32* %i, align 4, !dbg !1093
  %inc8 = add nsw i32 %33, 1, !dbg !1093
  store i32 %inc8, i32* %i, align 4, !dbg !1093
  br label %for.cond, !dbg !1094

for.end:                                          ; preds = %for.cond
  call void @llvm.dbg.declare(metadata i32* %score, metadata !1095, metadata !605), !dbg !1096
  %34 = load i32* %good, align 4, !dbg !1097
  %35 = load i32* %bad, align 4, !dbg !1098
  %sub = sub nsw i32 %34, %35, !dbg !1097
  store i32 %sub, i32* %score, align 4, !dbg !1096
  %36 = load i32* %good, align 4, !dbg !1099
  %cmp9 = icmp eq i32 %36, 0, !dbg !1099
  %37 = select i1 %cmp9, i64 13, i64 14, !dbg !1101
  %38 = getelementptr inbounds [36 x i64]* @__llvm_gcov_ctr28, i64 0, i64 %37, !dbg !1101
  %39 = load i64* %38, !dbg !1101
  %40 = add i64 %39, 1, !dbg !1101
  store i64 %40, i64* %38, !dbg !1101
  br i1 %cmp9, label %if.then13, label %lor.lhs.false, !dbg !1101

lor.lhs.false:                                    ; preds = %for.end
  %41 = load i32* %bad, align 4, !dbg !1102
  %cmp10 = icmp eq i32 %41, 0, !dbg !1102
  %42 = select i1 %cmp10, i64 15, i64 16, !dbg !1101
  %43 = getelementptr inbounds [36 x i64]* @__llvm_gcov_ctr28, i64 0, i64 %42, !dbg !1101
  %44 = load i64* %43, !dbg !1101
  %45 = add i64 %44, 1, !dbg !1101
  store i64 %45, i64* %43, !dbg !1101
  br i1 %cmp10, label %if.then13, label %lor.lhs.false11, !dbg !1101

lor.lhs.false11:                                  ; preds = %lor.lhs.false
  %46 = load i32* %count, align 4, !dbg !1104
  %cmp12 = icmp eq i32 %46, 61, !dbg !1104
  %47 = select i1 %cmp12, i64 17, i64 18, !dbg !1101
  %48 = getelementptr inbounds [36 x i64]* @__llvm_gcov_ctr28, i64 0, i64 %47, !dbg !1101
  %49 = load i64* %48, !dbg !1101
  %50 = add i64 %49, 1, !dbg !1101
  store i64 %50, i64* %48, !dbg !1101
  br i1 %cmp12, label %if.then13, label %if.end32, !dbg !1101

if.then13:                                        ; preds = %lor.lhs.false11, %lor.lhs.false, %for.end
  %51 = load i32* %good, align 4, !dbg !1106
  %cmp14 = icmp eq i32 %51, 0, !dbg !1106
  %52 = select i1 %cmp14, i64 19, i64 20, !dbg !1109
  %53 = getelementptr inbounds [36 x i64]* @__llvm_gcov_ctr28, i64 0, i64 %52, !dbg !1109
  %54 = load i64* %53, !dbg !1109
  %55 = add i64 %54, 1, !dbg !1109
  store i64 %55, i64* %53, !dbg !1109
  br i1 %cmp14, label %if.then15, label %if.end17, !dbg !1109

if.then15:                                        ; preds = %if.then13
  %56 = load i64* getelementptr inbounds ([36 x i64]* @__llvm_gcov_ctr28, i64 0, i64 21), !dbg !1110
  %57 = add i64 %56, 1, !dbg !1110
  store i64 %57, i64* getelementptr inbounds ([36 x i64]* @__llvm_gcov_ctr28, i64 0, i64 21), !dbg !1110
  %58 = load i32* %score, align 4, !dbg !1110
  %sub16 = sub nsw i32 %58, 20000, !dbg !1110
  store i32 %sub16, i32* %score, align 4, !dbg !1110
  br label %if.end17, !dbg !1110

if.end17:                                         ; preds = %if.then15, %if.then13
  %59 = load i32* %bad, align 4, !dbg !1111
  %cmp18 = icmp eq i32 %59, 0, !dbg !1111
  %60 = select i1 %cmp18, i64 22, i64 23, !dbg !1113
  %61 = getelementptr inbounds [36 x i64]* @__llvm_gcov_ctr28, i64 0, i64 %60, !dbg !1113
  %62 = load i64* %61, !dbg !1113
  %63 = add i64 %62, 1, !dbg !1113
  store i64 %63, i64* %61, !dbg !1113
  br i1 %cmp18, label %if.then19, label %if.end20, !dbg !1113

if.then19:                                        ; preds = %if.end17
  %64 = load i64* getelementptr inbounds ([36 x i64]* @__llvm_gcov_ctr28, i64 0, i64 24), !dbg !1114
  %65 = add i64 %64, 1, !dbg !1114
  store i64 %65, i64* getelementptr inbounds ([36 x i64]* @__llvm_gcov_ctr28, i64 0, i64 24), !dbg !1114
  %66 = load i32* %score, align 4, !dbg !1114
  %add = add nsw i32 %66, 20000, !dbg !1114
  store i32 %add, i32* %score, align 4, !dbg !1114
  br label %if.end20, !dbg !1114

if.end20:                                         ; preds = %if.then19, %if.end17
  %67 = load i32* %count, align 4, !dbg !1115
  %cmp21 = icmp eq i32 %67, 61, !dbg !1115
  %68 = select i1 %cmp21, i64 25, i64 26, !dbg !1117
  %69 = getelementptr inbounds [36 x i64]* @__llvm_gcov_ctr28, i64 0, i64 %68, !dbg !1117
  %70 = load i64* %69, !dbg !1117
  %71 = add i64 %70, 1, !dbg !1117
  store i64 %71, i64* %69, !dbg !1117
  br i1 %cmp21, label %if.then22, label %if.end31, !dbg !1117

if.then22:                                        ; preds = %if.end20
  %72 = load i32* %good, align 4, !dbg !1118
  %73 = load i32* %bad, align 4, !dbg !1121
  %cmp23 = icmp sgt i32 %72, %73, !dbg !1118
  %74 = select i1 %cmp23, i64 27, i64 28, !dbg !1122
  %75 = getelementptr inbounds [36 x i64]* @__llvm_gcov_ctr28, i64 0, i64 %74, !dbg !1122
  %76 = load i64* %75, !dbg !1122
  %77 = add i64 %76, 1, !dbg !1122
  store i64 %77, i64* %75, !dbg !1122
  br i1 %cmp23, label %if.then24, label %if.end26, !dbg !1122

if.then24:                                        ; preds = %if.then22
  %78 = load i64* getelementptr inbounds ([36 x i64]* @__llvm_gcov_ctr28, i64 0, i64 29), !dbg !1123
  %79 = add i64 %78, 1, !dbg !1123
  store i64 %79, i64* getelementptr inbounds ([36 x i64]* @__llvm_gcov_ctr28, i64 0, i64 29), !dbg !1123
  %80 = load i32* %score, align 4, !dbg !1123
  %add25 = add nsw i32 %80, 20000, !dbg !1123
  store i32 %add25, i32* %score, align 4, !dbg !1123
  br label %if.end26, !dbg !1123

if.end26:                                         ; preds = %if.then24, %if.then22
  %81 = load i32* %good, align 4, !dbg !1124
  %82 = load i32* %bad, align 4, !dbg !1126
  %cmp27 = icmp sle i32 %81, %82, !dbg !1124
  %83 = select i1 %cmp27, i64 30, i64 31, !dbg !1127
  %84 = getelementptr inbounds [36 x i64]* @__llvm_gcov_ctr28, i64 0, i64 %83, !dbg !1127
  %85 = load i64* %84, !dbg !1127
  %86 = add i64 %85, 1, !dbg !1127
  store i64 %86, i64* %84, !dbg !1127
  br i1 %cmp27, label %if.then28, label %if.end30, !dbg !1127

if.then28:                                        ; preds = %if.end26
  %87 = load i64* getelementptr inbounds ([36 x i64]* @__llvm_gcov_ctr28, i64 0, i64 32), !dbg !1128
  %88 = add i64 %87, 1, !dbg !1128
  store i64 %88, i64* getelementptr inbounds ([36 x i64]* @__llvm_gcov_ctr28, i64 0, i64 32), !dbg !1128
  %89 = load i32* %score, align 4, !dbg !1128
  %sub29 = sub nsw i32 %89, 20000, !dbg !1128
  store i32 %sub29, i32* %score, align 4, !dbg !1128
  br label %if.end30, !dbg !1128

if.end30:                                         ; preds = %if.then28, %if.end26
  %90 = load i64* getelementptr inbounds ([36 x i64]* @__llvm_gcov_ctr28, i64 0, i64 33), !dbg !1129
  %91 = add i64 %90, 1, !dbg !1129
  store i64 %91, i64* getelementptr inbounds ([36 x i64]* @__llvm_gcov_ctr28, i64 0, i64 33), !dbg !1129
  br label %if.end31, !dbg !1129

if.end31:                                         ; preds = %if.end30, %if.end20
  %92 = load i64* getelementptr inbounds ([36 x i64]* @__llvm_gcov_ctr28, i64 0, i64 34), !dbg !1130
  %93 = add i64 %92, 1, !dbg !1130
  store i64 %93, i64* getelementptr inbounds ([36 x i64]* @__llvm_gcov_ctr28, i64 0, i64 34), !dbg !1130
  br label %if.end32, !dbg !1130

if.end32:                                         ; preds = %if.end31, %lor.lhs.false11
  %94 = load i64* getelementptr inbounds ([36 x i64]* @__llvm_gcov_ctr28, i64 0, i64 35), !dbg !1131
  %95 = add i64 %94, 1, !dbg !1131
  store i64 %95, i64* getelementptr inbounds ([36 x i64]* @__llvm_gcov_ctr28, i64 0, i64 35), !dbg !1131
  %96 = load i32* %score, align 4, !dbg !1131
  ret i32 %96, !dbg !1132
}

; Function Attrs: uwtable
define i32 @_ZN13HexxagonBoard11getHexxagonEi(%class.HexxagonBoard* %this, i32 %i) #4 align 2 {
entry:
  %0 = load i64* getelementptr inbounds ([9 x i64]* @__llvm_gcov_ctr29, i64 0, i64 0)
  %1 = add i64 %0, 1
  store i64 %1, i64* getelementptr inbounds ([9 x i64]* @__llvm_gcov_ctr29, i64 0, i64 0)
  %retval = alloca i32, align 4
  %this.addr = alloca %class.HexxagonBoard*, align 8
  %i.addr = alloca i32, align 4
  br label %2

; <label>:2                                       ; preds = %entry
  store %class.HexxagonBoard* %this, %class.HexxagonBoard** %this.addr, align 8
  call void @llvm.dbg.declare(metadata %class.HexxagonBoard** %this.addr, metadata !1133, metadata !605), !dbg !1134
  store i32 %i, i32* %i.addr, align 4
  call void @llvm.dbg.declare(metadata i32* %i.addr, metadata !1135, metadata !605), !dbg !1136
  %this1 = load %class.HexxagonBoard** %this.addr
  %board = getelementptr inbounds %class.HexxagonBoard* %this1, i32 0, i32 0, !dbg !1137
  %3 = load i32* %i.addr, align 4, !dbg !1139
  %call = call i32 @_ZN10BitBoard646getBitEi(%class.BitBoard64* %board, i32 %3), !dbg !1137
  %tobool = icmp ne i32 %call, 0, !dbg !1137
  %4 = select i1 %tobool, i64 1, i64 2, !dbg !1140
  %5 = getelementptr inbounds [9 x i64]* @__llvm_gcov_ctr29, i64 0, i64 %4, !dbg !1140
  %6 = load i64* %5, !dbg !1140
  %7 = add i64 %6, 1, !dbg !1140
  store i64 %7, i64* %5, !dbg !1140
  br i1 %tobool, label %if.then, label %if.else5, !dbg !1140

if.then:                                          ; preds = %2
  %color = getelementptr inbounds %class.HexxagonBoard* %this1, i32 0, i32 1, !dbg !1141
  %8 = load i32* %i.addr, align 4, !dbg !1144
  %call2 = call i32 @_ZN10BitBoard646getBitEi(%class.BitBoard64* %color, i32 %8), !dbg !1141
  %tobool3 = icmp ne i32 %call2, 0, !dbg !1141
  %9 = select i1 %tobool3, i64 3, i64 4, !dbg !1145
  %10 = getelementptr inbounds [9 x i64]* @__llvm_gcov_ctr29, i64 0, i64 %9, !dbg !1145
  %11 = load i64* %10, !dbg !1145
  %12 = add i64 %11, 1, !dbg !1145
  store i64 %12, i64* %10, !dbg !1145
  br i1 %tobool3, label %if.then4, label %if.else, !dbg !1145

if.then4:                                         ; preds = %if.then
  %13 = load i64* getelementptr inbounds ([9 x i64]* @__llvm_gcov_ctr29, i64 0, i64 5), !dbg !1146
  %14 = add i64 %13, 1, !dbg !1146
  store i64 %14, i64* getelementptr inbounds ([9 x i64]* @__llvm_gcov_ctr29, i64 0, i64 5), !dbg !1146
  store i32 1, i32* %retval, !dbg !1146
  br label %return, !dbg !1146

if.else:                                          ; preds = %if.then
  %15 = load i64* getelementptr inbounds ([9 x i64]* @__llvm_gcov_ctr29, i64 0, i64 6), !dbg !1147
  %16 = add i64 %15, 1, !dbg !1147
  store i64 %16, i64* getelementptr inbounds ([9 x i64]* @__llvm_gcov_ctr29, i64 0, i64 6), !dbg !1147
  store i32 2, i32* %retval, !dbg !1147
  br label %return, !dbg !1147

if.else5:                                         ; preds = %2
  %17 = load i64* getelementptr inbounds ([9 x i64]* @__llvm_gcov_ctr29, i64 0, i64 7), !dbg !1148
  %18 = add i64 %17, 1, !dbg !1148
  store i64 %18, i64* getelementptr inbounds ([9 x i64]* @__llvm_gcov_ctr29, i64 0, i64 7), !dbg !1148
  store i32 3, i32* %retval, !dbg !1148
  br label %return, !dbg !1148

return:                                           ; preds = %if.else5, %if.else, %if.then4
  %19 = load i64* getelementptr inbounds ([9 x i64]* @__llvm_gcov_ctr29, i64 0, i64 8), !dbg !1149
  %20 = add i64 %19, 1, !dbg !1149
  store i64 %20, i64* getelementptr inbounds ([9 x i64]* @__llvm_gcov_ctr29, i64 0, i64 8), !dbg !1149
  %21 = load i32* %retval, !dbg !1149
  ret i32 %21, !dbg !1149
}

; Function Attrs: uwtable
define i32 @_ZN13HexxagonBoard9applyMoveER12HexxagonMove(%class.HexxagonBoard* %this, %class.HexxagonMove* dereferenceable(8) %move) #4 align 2 {
entry:
  %0 = load i64* getelementptr inbounds ([5 x i64]* @__llvm_gcov_ctr30, i64 0, i64 0)
  %1 = add i64 %0, 1
  store i64 %1, i64* getelementptr inbounds ([5 x i64]* @__llvm_gcov_ctr30, i64 0, i64 0)
  %this.addr = alloca %class.HexxagonBoard*, align 8
  %move.addr = alloca %class.HexxagonMove*, align 8
  %ref.tmp = alloca %class.BitBoard64, align 4
  %coerce = alloca %class.BitBoard64, align 4
  %ref.tmp15 = alloca %class.BitBoard64, align 4
  %coerce19 = alloca %class.BitBoard64, align 4
  br label %2

; <label>:2                                       ; preds = %entry
  store %class.HexxagonBoard* %this, %class.HexxagonBoard** %this.addr, align 8
  call void @llvm.dbg.declare(metadata %class.HexxagonBoard** %this.addr, metadata !1150, metadata !605), !dbg !1151
  store %class.HexxagonMove* %move, %class.HexxagonMove** %move.addr, align 8
  call void @llvm.dbg.declare(metadata %class.HexxagonMove** %move.addr, metadata !1152, metadata !605), !dbg !1153
  %this1 = load %class.HexxagonBoard** %this.addr
  %board = getelementptr inbounds %class.HexxagonBoard* %this1, i32 0, i32 0, !dbg !1154
  %3 = load %class.HexxagonMove** %move.addr, align 8, !dbg !1155
  %to = getelementptr inbounds %class.HexxagonMove* %3, i32 0, i32 1, !dbg !1155
  %4 = load i8* %to, align 1, !dbg !1155
  %conv = sext i8 %4 to i32, !dbg !1155
  call void @_ZN10BitBoard646setBitEi(%class.BitBoard64* %board, i32 %conv), !dbg !1154
  %color = getelementptr inbounds %class.HexxagonBoard* %this1, i32 0, i32 1, !dbg !1156
  %5 = load %class.HexxagonMove** %move.addr, align 8, !dbg !1157
  %to2 = getelementptr inbounds %class.HexxagonMove* %5, i32 0, i32 1, !dbg !1157
  %6 = load i8* %to2, align 1, !dbg !1157
  %conv3 = sext i8 %6 to i32, !dbg !1157
  call void @_ZN10BitBoard646setBitEi(%class.BitBoard64* %color, i32 %conv3), !dbg !1156
  %color4 = getelementptr inbounds %class.HexxagonBoard* %this1, i32 0, i32 1, !dbg !1158
  %color5 = getelementptr inbounds %class.HexxagonBoard* %this1, i32 0, i32 1, !dbg !1159
  %7 = load %class.HexxagonMove** %move.addr, align 8, !dbg !1160
  %to6 = getelementptr inbounds %class.HexxagonMove* %7, i32 0, i32 1, !dbg !1160
  %8 = load i8* %to6, align 1, !dbg !1160
  %idxprom = sext i8 %8 to i64, !dbg !1159
  %9 = load %class.BitBoard64** @clone_lookups, align 8, !dbg !1161
  %arrayidx = getelementptr inbounds %class.BitBoard64* %9, i64 %idxprom, !dbg !1159
  %call = call i64 @_ZN10BitBoard64orERKS_(%class.BitBoard64* %color5, %class.BitBoard64* dereferenceable(8) %arrayidx), !dbg !1159
  %10 = bitcast %class.BitBoard64* %ref.tmp to i64*, !dbg !1159
  store i64 %call, i64* %10, align 1, !dbg !1159
  %call7 = call i64 @_ZN10BitBoard64aSERKS_(%class.BitBoard64* %color4, %class.BitBoard64* dereferenceable(8) %ref.tmp), !dbg !1158
  %11 = bitcast %class.BitBoard64* %coerce to i64*, !dbg !1158
  store i64 %call7, i64* %11, align 1, !dbg !1158
  %12 = load %class.HexxagonMove** %move.addr, align 8, !dbg !1162
  %from = getelementptr inbounds %class.HexxagonMove* %12, i32 0, i32 0, !dbg !1162
  %13 = load i8* %from, align 1, !dbg !1162
  %conv8 = sext i8 %13 to i32, !dbg !1162
  %14 = load %class.HexxagonMove** %move.addr, align 8, !dbg !1164
  %to9 = getelementptr inbounds %class.HexxagonMove* %14, i32 0, i32 1, !dbg !1164
  %15 = load i8* %to9, align 1, !dbg !1164
  %conv10 = sext i8 %15 to i32, !dbg !1164
  %cmp = icmp ne i32 %conv8, %conv10, !dbg !1162
  %16 = select i1 %cmp, i64 1, i64 2, !dbg !1165
  %17 = getelementptr inbounds [5 x i64]* @__llvm_gcov_ctr30, i64 0, i64 %16, !dbg !1165
  %18 = load i64* %17, !dbg !1165
  %19 = add i64 %18, 1, !dbg !1165
  store i64 %19, i64* %17, !dbg !1165
  br i1 %cmp, label %if.then, label %if.end, !dbg !1165

if.then:                                          ; preds = %2
  %20 = load i64* getelementptr inbounds ([5 x i64]* @__llvm_gcov_ctr30, i64 0, i64 3), !dbg !1166
  %21 = add i64 %20, 1, !dbg !1166
  store i64 %21, i64* getelementptr inbounds ([5 x i64]* @__llvm_gcov_ctr30, i64 0, i64 3), !dbg !1166
  %board11 = getelementptr inbounds %class.HexxagonBoard* %this1, i32 0, i32 0, !dbg !1166
  %22 = load %class.HexxagonMove** %move.addr, align 8, !dbg !1167
  %from12 = getelementptr inbounds %class.HexxagonMove* %22, i32 0, i32 0, !dbg !1167
  %23 = load i8* %from12, align 1, !dbg !1167
  %conv13 = sext i8 %23 to i32, !dbg !1167
  call void @_ZN10BitBoard648unSetBitEi(%class.BitBoard64* %board11, i32 %conv13), !dbg !1166
  br label %if.end, !dbg !1166

if.end:                                           ; preds = %if.then, %2
  %24 = load i64* getelementptr inbounds ([5 x i64]* @__llvm_gcov_ctr30, i64 0, i64 4), !dbg !1168
  %25 = add i64 %24, 1, !dbg !1168
  store i64 %25, i64* getelementptr inbounds ([5 x i64]* @__llvm_gcov_ctr30, i64 0, i64 4), !dbg !1168
  %color14 = getelementptr inbounds %class.HexxagonBoard* %this1, i32 0, i32 1, !dbg !1168
  %color16 = getelementptr inbounds %class.HexxagonBoard* %this1, i32 0, i32 1, !dbg !1169
  %call17 = call i64 @_ZN10BitBoard64coEv(%class.BitBoard64* %color16), !dbg !1169
  %26 = bitcast %class.BitBoard64* %ref.tmp15 to i64*, !dbg !1169
  store i64 %call17, i64* %26, align 1, !dbg !1169
  %call18 = call i64 @_ZN10BitBoard64aSERKS_(%class.BitBoard64* %color14, %class.BitBoard64* dereferenceable(8) %ref.tmp15), !dbg !1168
  %27 = bitcast %class.BitBoard64* %coerce19 to i64*, !dbg !1168
  store i64 %call18, i64* %27, align 1, !dbg !1168
  ret i32 0, !dbg !1170
}

declare i64 @_ZN10BitBoard64orERKS_(%class.BitBoard64*, %class.BitBoard64* dereferenceable(8)) #0

declare void @_ZN10BitBoard648unSetBitEi(%class.BitBoard64*, i32) #0

declare i64 @_ZN10BitBoard64coEv(%class.BitBoard64*) #0

; Function Attrs: uwtable
define i32 @_ZN13HexxagonBoard11isMoveValidER12HexxagonMove(%class.HexxagonBoard* %this, %class.HexxagonMove* dereferenceable(8) %move) #4 align 2 {
entry:
  %0 = load i64* getelementptr inbounds ([16 x i64]* @__llvm_gcov_ctr31, i64 0, i64 0)
  %1 = add i64 %0, 1
  store i64 %1, i64* getelementptr inbounds ([16 x i64]* @__llvm_gcov_ctr31, i64 0, i64 0)
  %retval = alloca i32, align 4
  %this.addr = alloca %class.HexxagonBoard*, align 8
  %move.addr = alloca %class.HexxagonMove*, align 8
  %mine = alloca %class.BitBoard64, align 4
  %coerce = alloca %class.BitBoard64, align 4
  %tmp = alloca %class.BitBoard64, align 4
  %coerce18 = alloca %class.BitBoard64, align 4
  %coerce20 = alloca %class.BitBoard64, align 4
  br label %2

; <label>:2                                       ; preds = %entry
  store %class.HexxagonBoard* %this, %class.HexxagonBoard** %this.addr, align 8
  call void @llvm.dbg.declare(metadata %class.HexxagonBoard** %this.addr, metadata !1171, metadata !605), !dbg !1172
  store %class.HexxagonMove* %move, %class.HexxagonMove** %move.addr, align 8
  call void @llvm.dbg.declare(metadata %class.HexxagonMove** %move.addr, metadata !1173, metadata !605), !dbg !1174
  %this1 = load %class.HexxagonBoard** %this.addr
  call void @llvm.dbg.declare(metadata %class.BitBoard64* %mine, metadata !1175, metadata !605), !dbg !1176
  %color = getelementptr inbounds %class.HexxagonBoard* %this1, i32 0, i32 1, !dbg !1177
  %board = getelementptr inbounds %class.HexxagonBoard* %this1, i32 0, i32 0, !dbg !1177
  %call = call i64 @_ZN10BitBoard64anERKS_(%class.BitBoard64* %color, %class.BitBoard64* dereferenceable(8) %board), !dbg !1177
  %3 = bitcast %class.BitBoard64* %mine to i64*, !dbg !1177
  store i64 %call, i64* %3, align 1, !dbg !1177
  %board2 = getelementptr inbounds %class.HexxagonBoard* %this1, i32 0, i32 0, !dbg !1178
  %4 = load %class.HexxagonMove** %move.addr, align 8, !dbg !1180
  %to = getelementptr inbounds %class.HexxagonMove* %4, i32 0, i32 1, !dbg !1180
  %5 = load i8* %to, align 1, !dbg !1180
  %conv = sext i8 %5 to i32, !dbg !1180
  %call3 = call i32 @_ZN10BitBoard646getBitEi(%class.BitBoard64* %board2, i32 %conv), !dbg !1178
  %tobool = icmp ne i32 %call3, 0, !dbg !1178
  %6 = select i1 %tobool, i64 1, i64 2, !dbg !1181
  %7 = getelementptr inbounds [16 x i64]* @__llvm_gcov_ctr31, i64 0, i64 %6, !dbg !1181
  %8 = load i64* %7, !dbg !1181
  %9 = add i64 %8, 1, !dbg !1181
  store i64 %9, i64* %7, !dbg !1181
  br i1 %tobool, label %if.end25, label %if.then, !dbg !1181

if.then:                                          ; preds = %2
  %10 = load %class.HexxagonMove** %move.addr, align 8, !dbg !1182
  %from = getelementptr inbounds %class.HexxagonMove* %10, i32 0, i32 0, !dbg !1182
  %11 = load i8* %from, align 1, !dbg !1182
  %conv4 = sext i8 %11 to i32, !dbg !1182
  %12 = load %class.HexxagonMove** %move.addr, align 8, !dbg !1185
  %to5 = getelementptr inbounds %class.HexxagonMove* %12, i32 0, i32 1, !dbg !1185
  %13 = load i8* %to5, align 1, !dbg !1185
  %conv6 = sext i8 %13 to i32, !dbg !1185
  %cmp = icmp eq i32 %conv4, %conv6, !dbg !1182
  %14 = select i1 %cmp, i64 3, i64 4, !dbg !1186
  %15 = getelementptr inbounds [16 x i64]* @__llvm_gcov_ctr31, i64 0, i64 %14, !dbg !1186
  %16 = load i64* %15, !dbg !1186
  %17 = add i64 %16, 1, !dbg !1186
  store i64 %17, i64* %15, !dbg !1186
  br i1 %cmp, label %if.then7, label %if.else, !dbg !1186

if.then7:                                         ; preds = %if.then
  %18 = load %class.HexxagonMove** %move.addr, align 8, !dbg !1187
  %to8 = getelementptr inbounds %class.HexxagonMove* %18, i32 0, i32 1, !dbg !1187
  %19 = load i8* %to8, align 1, !dbg !1187
  %idxprom = sext i8 %19 to i64, !dbg !1190
  %20 = load %class.BitBoard64** @clone_lookups, align 8, !dbg !1191
  %arrayidx = getelementptr inbounds %class.BitBoard64* %20, i64 %idxprom, !dbg !1190
  %call9 = call i64 @_ZN10BitBoard64anERKS_(%class.BitBoard64* %mine, %class.BitBoard64* dereferenceable(8) %arrayidx), !dbg !1190
  %21 = bitcast %class.BitBoard64* %coerce to i64*, !dbg !1190
  store i64 %call9, i64* %21, align 1, !dbg !1190
  %call10 = call zeroext i1 @_ZN10BitBoard64cvbEv(%class.BitBoard64* %coerce), !dbg !1190
  %22 = select i1 %call10, i64 5, i64 6, !dbg !1192
  %23 = getelementptr inbounds [16 x i64]* @__llvm_gcov_ctr31, i64 0, i64 %22, !dbg !1192
  %24 = load i64* %23, !dbg !1192
  %25 = add i64 %24, 1, !dbg !1192
  store i64 %25, i64* %23, !dbg !1192
  br i1 %call10, label %if.then11, label %if.end, !dbg !1192

if.then11:                                        ; preds = %if.then7
  %26 = load i64* getelementptr inbounds ([16 x i64]* @__llvm_gcov_ctr31, i64 0, i64 7), !dbg !1193
  %27 = add i64 %26, 1, !dbg !1193
  store i64 %27, i64* getelementptr inbounds ([16 x i64]* @__llvm_gcov_ctr31, i64 0, i64 7), !dbg !1193
  store i32 1, i32* %retval, !dbg !1193
  br label %return, !dbg !1193

if.end:                                           ; preds = %if.then7
  %28 = load i64* getelementptr inbounds ([16 x i64]* @__llvm_gcov_ctr31, i64 0, i64 8), !dbg !1194
  %29 = add i64 %28, 1, !dbg !1194
  store i64 %29, i64* getelementptr inbounds ([16 x i64]* @__llvm_gcov_ctr31, i64 0, i64 8), !dbg !1194
  br label %if.end24, !dbg !1194

if.else:                                          ; preds = %if.then
  call void @llvm.dbg.declare(metadata %class.BitBoard64* %tmp, metadata !1195, metadata !605), !dbg !1197
  call void @_ZN10BitBoard64C2Ejj(%class.BitBoard64* %tmp, i32 0, i32 0), !dbg !1197
  %30 = load %class.HexxagonMove** %move.addr, align 8, !dbg !1198
  %from12 = getelementptr inbounds %class.HexxagonMove* %30, i32 0, i32 0, !dbg !1198
  %31 = load i8* %from12, align 1, !dbg !1198
  %conv13 = sext i8 %31 to i32, !dbg !1198
  call void @_ZN10BitBoard646setBitEi(%class.BitBoard64* %tmp, i32 %conv13), !dbg !1199
  %32 = load %class.HexxagonMove** %move.addr, align 8, !dbg !1200
  %to14 = getelementptr inbounds %class.HexxagonMove* %32, i32 0, i32 1, !dbg !1200
  %33 = load i8* %to14, align 1, !dbg !1200
  %idxprom15 = sext i8 %33 to i64, !dbg !1202
  %34 = load %class.BitBoard64** @jump_lookups, align 8, !dbg !1203
  %arrayidx16 = getelementptr inbounds %class.BitBoard64* %34, i64 %idxprom15, !dbg !1202
  %call17 = call i64 @_ZN10BitBoard64anERKS_(%class.BitBoard64* %tmp, %class.BitBoard64* dereferenceable(8) %arrayidx16), !dbg !1202
  %35 = bitcast %class.BitBoard64* %coerce18 to i64*, !dbg !1202
  store i64 %call17, i64* %35, align 1, !dbg !1202
  %call19 = call i64 @_ZN10BitBoard64anERKS_(%class.BitBoard64* %coerce18, %class.BitBoard64* dereferenceable(8) %mine), !dbg !1202
  %36 = bitcast %class.BitBoard64* %coerce20 to i64*, !dbg !1202
  store i64 %call19, i64* %36, align 1, !dbg !1202
  %call21 = call zeroext i1 @_ZN10BitBoard64cvbEv(%class.BitBoard64* %coerce20), !dbg !1202
  %37 = select i1 %call21, i64 9, i64 10, !dbg !1204
  %38 = getelementptr inbounds [16 x i64]* @__llvm_gcov_ctr31, i64 0, i64 %37, !dbg !1204
  %39 = load i64* %38, !dbg !1204
  %40 = add i64 %39, 1, !dbg !1204
  store i64 %40, i64* %38, !dbg !1204
  br i1 %call21, label %if.then22, label %if.end23, !dbg !1204

if.then22:                                        ; preds = %if.else
  %41 = load i64* getelementptr inbounds ([16 x i64]* @__llvm_gcov_ctr31, i64 0, i64 11), !dbg !1205
  %42 = add i64 %41, 1, !dbg !1205
  store i64 %42, i64* getelementptr inbounds ([16 x i64]* @__llvm_gcov_ctr31, i64 0, i64 11), !dbg !1205
  store i32 1, i32* %retval, !dbg !1205
  br label %return, !dbg !1205

if.end23:                                         ; preds = %if.else
  %43 = load i64* getelementptr inbounds ([16 x i64]* @__llvm_gcov_ctr31, i64 0, i64 12)
  %44 = add i64 %43, 1
  store i64 %44, i64* getelementptr inbounds ([16 x i64]* @__llvm_gcov_ctr31, i64 0, i64 12)
  br label %if.end24

if.end24:                                         ; preds = %if.end23, %if.end
  %45 = load i64* getelementptr inbounds ([16 x i64]* @__llvm_gcov_ctr31, i64 0, i64 13), !dbg !1206
  %46 = add i64 %45, 1, !dbg !1206
  store i64 %46, i64* getelementptr inbounds ([16 x i64]* @__llvm_gcov_ctr31, i64 0, i64 13), !dbg !1206
  br label %if.end25, !dbg !1206

if.end25:                                         ; preds = %if.end24, %2
  %47 = load i64* getelementptr inbounds ([16 x i64]* @__llvm_gcov_ctr31, i64 0, i64 14), !dbg !1207
  %48 = add i64 %47, 1, !dbg !1207
  store i64 %48, i64* getelementptr inbounds ([16 x i64]* @__llvm_gcov_ctr31, i64 0, i64 14), !dbg !1207
  store i32 0, i32* %retval, !dbg !1207
  br label %return, !dbg !1207

return:                                           ; preds = %if.end25, %if.then22, %if.then11
  %49 = load i64* getelementptr inbounds ([16 x i64]* @__llvm_gcov_ctr31, i64 0, i64 15), !dbg !1208
  %50 = add i64 %49, 1, !dbg !1208
  store i64 %50, i64* getelementptr inbounds ([16 x i64]* @__llvm_gcov_ctr31, i64 0, i64 15), !dbg !1208
  %51 = load i32* %retval, !dbg !1208
  ret i32 %51, !dbg !1208
}

declare i64 @_ZN10BitBoard64anERKS_(%class.BitBoard64*, %class.BitBoard64* dereferenceable(8)) #0

declare zeroext i1 @_ZN10BitBoard64cvbEv(%class.BitBoard64*) #0

; Function Attrs: uwtable
define %class.HexxagonMoveList* @_ZN13HexxagonBoard16generateMoveListEv(%class.HexxagonBoard* %this) #4 align 2 {
entry:
  %0 = load i64* getelementptr inbounds ([39 x i64]* @__llvm_gcov_ctr32, i64 0, i64 0)
  %1 = add i64 %0, 1
  store i64 %1, i64* getelementptr inbounds ([39 x i64]* @__llvm_gcov_ctr32, i64 0, i64 0)
  %retval = alloca %class.HexxagonMoveList*, align 8
  %this.addr = alloca %class.HexxagonBoard*, align 8
  %list = alloca %class.HexxagonMoveList*, align 8
  %exn.slot = alloca i8*
  %ehselector.slot = alloca i32
  %i = alloca i32, align 4
  %ref.tmp = alloca %class.BitBoard64, align 4
  %coerce = alloca %class.BitBoard64, align 4
  %move = alloca %class.HexxagonMove, align 4
  %moves = alloca %class.BitBoard64, align 4
  %ref.tmp12 = alloca %class.BitBoard64, align 4
  %coerce17 = alloca %class.BitBoard64, align 4
  %coerce21 = alloca %class.BitBoard64, align 4
  %j = alloca i32, align 4
  %move30 = alloca %class.HexxagonMove, align 4
  br label %2

; <label>:2                                       ; preds = %entry
  store i32 0, i32* @__llvm_gcov_global_state_pred34
  store %class.HexxagonBoard* %this, %class.HexxagonBoard** %this.addr, align 8
  call void @llvm.dbg.declare(metadata %class.HexxagonBoard** %this.addr, metadata !1209, metadata !605), !dbg !1210
  %this1 = load %class.HexxagonBoard** %this.addr
  call void @llvm.dbg.declare(metadata %class.HexxagonMoveList** %list, metadata !1211, metadata !605), !dbg !1212
  %call = call noalias i8* @_Znwm(i64 16) #9, !dbg !1213
  %3 = bitcast i8* %call to %class.HexxagonMoveList*, !dbg !1213
  invoke void @_ZN16HexxagonMoveListC2Ev(%class.HexxagonMoveList* %3)
          to label %invoke.cont unwind label %lpad, !dbg !1213

invoke.cont:                                      ; preds = %2
  call void @__llvm_gcov_indirect_counter_increment(i32* @__llvm_gcov_global_state_pred34, i64** getelementptr inbounds ([8 x i64*]* @__llvm_gcda_edge_table33, i64 0, i64 0)), !dbg !1214
  store %class.HexxagonMoveList* %3, %class.HexxagonMoveList** %list, align 8, !dbg !1214
  %4 = load %class.HexxagonMoveList** %list, align 8, !dbg !1216
  %tobool = icmp ne %class.HexxagonMoveList* %4, null, !dbg !1216
  %5 = select i1 %tobool, i64 3, i64 4, !dbg !1218
  %6 = getelementptr inbounds [39 x i64]* @__llvm_gcov_ctr32, i64 0, i64 %5, !dbg !1218
  %7 = load i64* %6, !dbg !1218
  %8 = add i64 %7, 1, !dbg !1218
  store i64 %8, i64* %6, !dbg !1218
  br i1 %tobool, label %if.end, label %if.then, !dbg !1218

if.then:                                          ; preds = %invoke.cont
  %call2 = call i32 (i8*, ...)* @printf(i8* getelementptr inbounds ([17 x i8]* @.str, i32 0, i32 0)), !dbg !1219
  call void @exit(i32 -1) #11, !dbg !1221
  unreachable, !dbg !1221

lpad:                                             ; preds = %2
  %9 = landingpad { i8*, i32 } personality i8* bitcast (i32 (...)* @__gxx_personality_v0 to i8*)
          cleanup, !dbg !1222
  call void @__llvm_gcov_indirect_counter_increment(i32* @__llvm_gcov_global_state_pred34, i64** getelementptr inbounds ([8 x i64*]* @__llvm_gcda_edge_table33, i64 0, i64 2)), !dbg !1222
  %10 = load i64* getelementptr inbounds ([39 x i64]* @__llvm_gcov_ctr32, i64 0, i64 5), !dbg !1222
  %11 = add i64 %10, 1, !dbg !1222
  store i64 %11, i64* getelementptr inbounds ([39 x i64]* @__llvm_gcov_ctr32, i64 0, i64 5), !dbg !1222
  %12 = extractvalue { i8*, i32 } %9, 0, !dbg !1222
  store i8* %12, i8** %exn.slot, !dbg !1222
  %13 = extractvalue { i8*, i32 } %9, 1, !dbg !1222
  store i32 %13, i32* %ehselector.slot, !dbg !1222
  call void @_ZdlPv(i8* %call) #10, !dbg !1222
  br label %eh.resume, !dbg !1222

if.end:                                           ; preds = %invoke.cont
  %14 = load i64* getelementptr inbounds ([39 x i64]* @__llvm_gcov_ctr32, i64 0, i64 6), !dbg !1223
  %15 = add i64 %14, 1, !dbg !1223
  store i64 %15, i64* getelementptr inbounds ([39 x i64]* @__llvm_gcov_ctr32, i64 0, i64 6), !dbg !1223
  call void @llvm.dbg.declare(metadata i32* %i, metadata !1225, metadata !605), !dbg !1223
  store i32 0, i32* %i, align 4, !dbg !1223
  br label %for.cond, !dbg !1226

for.cond:                                         ; preds = %for.inc34, %if.end
  %16 = load i32* %i, align 4, !dbg !1227
  %cmp = icmp slt i32 %16, 61, !dbg !1227
  %17 = select i1 %cmp, i64 7, i64 8, !dbg !1231
  %18 = getelementptr inbounds [39 x i64]* @__llvm_gcov_ctr32, i64 0, i64 %17, !dbg !1231
  %19 = load i64* %18, !dbg !1231
  %20 = add i64 %19, 1, !dbg !1231
  store i64 %20, i64* %18, !dbg !1231
  br i1 %cmp, label %for.body, label %for.end36, !dbg !1231

for.body:                                         ; preds = %for.cond
  %board = getelementptr inbounds %class.HexxagonBoard* %this1, i32 0, i32 0, !dbg !1232
  %21 = load i32* %i, align 4, !dbg !1235
  %call3 = call i32 @_ZN10BitBoard646getBitEi(%class.BitBoard64* %board, i32 %21), !dbg !1232
  %tobool4 = icmp ne i32 %call3, 0, !dbg !1232
  %22 = select i1 %tobool4, i64 9, i64 10, !dbg !1236
  %23 = getelementptr inbounds [39 x i64]* @__llvm_gcov_ctr32, i64 0, i64 %22, !dbg !1236
  %24 = load i64* %23, !dbg !1236
  %25 = add i64 %24, 1, !dbg !1236
  store i64 %25, i64* %23, !dbg !1236
  br i1 %tobool4, label %if.end33, label %if.then5, !dbg !1236

if.then5:                                         ; preds = %for.body
  %color = getelementptr inbounds %class.HexxagonBoard* %this1, i32 0, i32 1, !dbg !1237
  %board6 = getelementptr inbounds %class.HexxagonBoard* %this1, i32 0, i32 0, !dbg !1240
  %26 = load i32* %i, align 4, !dbg !1241
  %idxprom = sext i32 %26 to i64, !dbg !1240
  %27 = load %class.BitBoard64** @clone_lookups, align 8, !dbg !1242
  %arrayidx = getelementptr inbounds %class.BitBoard64* %27, i64 %idxprom, !dbg !1240
  %call7 = call i64 @_ZN10BitBoard64anERKS_(%class.BitBoard64* %board6, %class.BitBoard64* dereferenceable(8) %arrayidx), !dbg !1240
  %28 = bitcast %class.BitBoard64* %ref.tmp to i64*, !dbg !1240
  store i64 %call7, i64* %28, align 1, !dbg !1240
  %call8 = call i64 @_ZN10BitBoard64anERKS_(%class.BitBoard64* %color, %class.BitBoard64* dereferenceable(8) %ref.tmp), !dbg !1237
  %29 = bitcast %class.BitBoard64* %coerce to i64*, !dbg !1237
  store i64 %call8, i64* %29, align 1, !dbg !1237
  %call9 = call zeroext i1 @_ZN10BitBoard64cvbEv(%class.BitBoard64* %coerce), !dbg !1237
  %30 = select i1 %call9, i64 11, i64 12, !dbg !1243
  %31 = getelementptr inbounds [39 x i64]* @__llvm_gcov_ctr32, i64 0, i64 %30, !dbg !1243
  %32 = load i64* %31, !dbg !1243
  %33 = add i64 %32, 1, !dbg !1243
  store i64 %33, i64* %31, !dbg !1243
  br i1 %call9, label %if.then10, label %if.end11, !dbg !1243

if.then10:                                        ; preds = %if.then5
  %34 = load i64* getelementptr inbounds ([39 x i64]* @__llvm_gcov_ctr32, i64 0, i64 13), !dbg !1244
  %35 = add i64 %34, 1, !dbg !1244
  store i64 %35, i64* getelementptr inbounds ([39 x i64]* @__llvm_gcov_ctr32, i64 0, i64 13), !dbg !1244
  call void @llvm.dbg.declare(metadata %class.HexxagonMove* %move, metadata !1246, metadata !605), !dbg !1244
  %36 = load i32* %i, align 4, !dbg !1247
  call void @_ZN12HexxagonMoveC2Ei(%class.HexxagonMove* %move, i32 %36), !dbg !1244
  %37 = load %class.HexxagonMoveList** %list, align 8, !dbg !1248
  call void @_ZN16HexxagonMoveList7addMoveER12HexxagonMove(%class.HexxagonMoveList* %37, %class.HexxagonMove* dereferenceable(8) %move), !dbg !1248
  br label %if.end11, !dbg !1249

if.end11:                                         ; preds = %if.then10, %if.then5
  call void @llvm.dbg.declare(metadata %class.BitBoard64* %moves, metadata !1250, metadata !605), !dbg !1251
  call void @_ZN10BitBoard64C2Ev(%class.BitBoard64* %moves), !dbg !1251
  %board13 = getelementptr inbounds %class.HexxagonBoard* %this1, i32 0, i32 0, !dbg !1252
  %38 = load i32* %i, align 4, !dbg !1254
  %idxprom14 = sext i32 %38 to i64, !dbg !1252
  %39 = load %class.BitBoard64** @jump_lookups, align 8, !dbg !1255
  %arrayidx15 = getelementptr inbounds %class.BitBoard64* %39, i64 %idxprom14, !dbg !1252
  %call16 = call i64 @_ZN10BitBoard64anERKS_(%class.BitBoard64* %board13, %class.BitBoard64* dereferenceable(8) %arrayidx15), !dbg !1252
  %40 = bitcast %class.BitBoard64* %coerce17 to i64*, !dbg !1252
  store i64 %call16, i64* %40, align 1, !dbg !1252
  %color18 = getelementptr inbounds %class.HexxagonBoard* %this1, i32 0, i32 1, !dbg !1256
  %call19 = call i64 @_ZN10BitBoard64anERKS_(%class.BitBoard64* %coerce17, %class.BitBoard64* dereferenceable(8) %color18), !dbg !1252
  %41 = bitcast %class.BitBoard64* %ref.tmp12 to i64*, !dbg !1252
  store i64 %call19, i64* %41, align 1, !dbg !1252
  %call20 = call i64 @_ZN10BitBoard64aSERKS_(%class.BitBoard64* %moves, %class.BitBoard64* dereferenceable(8) %ref.tmp12), !dbg !1257
  %42 = bitcast %class.BitBoard64* %coerce21 to i64*, !dbg !1257
  store i64 %call20, i64* %42, align 1, !dbg !1257
  %call22 = call zeroext i1 @_ZN10BitBoard64cvbEv(%class.BitBoard64* %coerce21), !dbg !1258
  %43 = select i1 %call22, i64 14, i64 15, !dbg !1259
  %44 = getelementptr inbounds [39 x i64]* @__llvm_gcov_ctr32, i64 0, i64 %43, !dbg !1259
  %45 = load i64* %44, !dbg !1259
  %46 = add i64 %45, 1, !dbg !1259
  store i64 %46, i64* %44, !dbg !1259
  br i1 %call22, label %if.then23, label %if.end32, !dbg !1259

if.then23:                                        ; preds = %if.end11
  %47 = load i64* getelementptr inbounds ([39 x i64]* @__llvm_gcov_ctr32, i64 0, i64 16), !dbg !1260
  %48 = add i64 %47, 1, !dbg !1260
  store i64 %48, i64* getelementptr inbounds ([39 x i64]* @__llvm_gcov_ctr32, i64 0, i64 16), !dbg !1260
  call void @llvm.dbg.declare(metadata i32* %j, metadata !1263, metadata !605), !dbg !1260
  store i32 0, i32* %j, align 4, !dbg !1260
  br label %for.cond24, !dbg !1264

for.cond24:                                       ; preds = %for.inc, %if.then23
  %49 = load i32* %j, align 4, !dbg !1265
  %cmp25 = icmp slt i32 %49, 61, !dbg !1265
  %50 = select i1 %cmp25, i64 17, i64 18, !dbg !1269
  %51 = getelementptr inbounds [39 x i64]* @__llvm_gcov_ctr32, i64 0, i64 %50, !dbg !1269
  %52 = load i64* %51, !dbg !1269
  %53 = add i64 %52, 1, !dbg !1269
  store i64 %53, i64* %51, !dbg !1269
  br i1 %cmp25, label %for.body26, label %for.end, !dbg !1269

for.body26:                                       ; preds = %for.cond24
  %54 = load i32* %j, align 4, !dbg !1270
  %call27 = call i32 @_ZN10BitBoard646getBitEi(%class.BitBoard64* %moves, i32 %54), !dbg !1273
  %tobool28 = icmp ne i32 %call27, 0, !dbg !1273
  %55 = select i1 %tobool28, i64 19, i64 20, !dbg !1274
  %56 = getelementptr inbounds [39 x i64]* @__llvm_gcov_ctr32, i64 0, i64 %55, !dbg !1274
  %57 = load i64* %56, !dbg !1274
  %58 = add i64 %57, 1, !dbg !1274
  store i64 %58, i64* %56, !dbg !1274
  br i1 %tobool28, label %if.then29, label %if.end31, !dbg !1274

if.then29:                                        ; preds = %for.body26
  %59 = load i64* getelementptr inbounds ([39 x i64]* @__llvm_gcov_ctr32, i64 0, i64 21), !dbg !1275
  %60 = add i64 %59, 1, !dbg !1275
  store i64 %60, i64* getelementptr inbounds ([39 x i64]* @__llvm_gcov_ctr32, i64 0, i64 21), !dbg !1275
  call void @llvm.dbg.declare(metadata %class.HexxagonMove* %move30, metadata !1277, metadata !605), !dbg !1275
  %61 = load i32* %j, align 4, !dbg !1278
  %62 = load i32* %i, align 4, !dbg !1279
  call void @_ZN12HexxagonMoveC2Eii(%class.HexxagonMove* %move30, i32 %61, i32 %62), !dbg !1275
  %63 = load %class.HexxagonMoveList** %list, align 8, !dbg !1280
  call void @_ZN16HexxagonMoveList7addMoveER12HexxagonMove(%class.HexxagonMoveList* %63, %class.HexxagonMove* dereferenceable(8) %move30), !dbg !1280
  br label %if.end31, !dbg !1281

if.end31:                                         ; preds = %if.then29, %for.body26
  %64 = load i64* getelementptr inbounds ([39 x i64]* @__llvm_gcov_ctr32, i64 0, i64 22), !dbg !1282
  %65 = add i64 %64, 1, !dbg !1282
  store i64 %65, i64* getelementptr inbounds ([39 x i64]* @__llvm_gcov_ctr32, i64 0, i64 22), !dbg !1282
  br label %for.inc, !dbg !1282

for.inc:                                          ; preds = %if.end31
  %66 = load i64* getelementptr inbounds ([39 x i64]* @__llvm_gcov_ctr32, i64 0, i64 23), !dbg !1283
  %67 = add i64 %66, 1, !dbg !1283
  store i64 %67, i64* getelementptr inbounds ([39 x i64]* @__llvm_gcov_ctr32, i64 0, i64 23), !dbg !1283
  %68 = load i32* %j, align 4, !dbg !1283
  %inc = add nsw i32 %68, 1, !dbg !1283
  store i32 %inc, i32* %j, align 4, !dbg !1283
  br label %for.cond24, !dbg !1284

for.end:                                          ; preds = %for.cond24
  %69 = load i64* getelementptr inbounds ([39 x i64]* @__llvm_gcov_ctr32, i64 0, i64 24), !dbg !1285
  %70 = add i64 %69, 1, !dbg !1285
  store i64 %70, i64* getelementptr inbounds ([39 x i64]* @__llvm_gcov_ctr32, i64 0, i64 24), !dbg !1285
  br label %if.end32, !dbg !1285

if.end32:                                         ; preds = %for.end, %if.end11
  %71 = load i64* getelementptr inbounds ([39 x i64]* @__llvm_gcov_ctr32, i64 0, i64 25), !dbg !1286
  %72 = add i64 %71, 1, !dbg !1286
  store i64 %72, i64* getelementptr inbounds ([39 x i64]* @__llvm_gcov_ctr32, i64 0, i64 25), !dbg !1286
  br label %if.end33, !dbg !1286

if.end33:                                         ; preds = %if.end32, %for.body
  %73 = load i64* getelementptr inbounds ([39 x i64]* @__llvm_gcov_ctr32, i64 0, i64 26), !dbg !1287
  %74 = add i64 %73, 1, !dbg !1287
  store i64 %74, i64* getelementptr inbounds ([39 x i64]* @__llvm_gcov_ctr32, i64 0, i64 26), !dbg !1287
  br label %for.inc34, !dbg !1287

for.inc34:                                        ; preds = %if.end33
  %75 = load i64* getelementptr inbounds ([39 x i64]* @__llvm_gcov_ctr32, i64 0, i64 27), !dbg !1288
  %76 = add i64 %75, 1, !dbg !1288
  store i64 %76, i64* getelementptr inbounds ([39 x i64]* @__llvm_gcov_ctr32, i64 0, i64 27), !dbg !1288
  %77 = load i32* %i, align 4, !dbg !1288
  %inc35 = add nsw i32 %77, 1, !dbg !1288
  store i32 %inc35, i32* %i, align 4, !dbg !1288
  br label %for.cond, !dbg !1289

for.end36:                                        ; preds = %for.cond
  %78 = load %class.HexxagonMoveList** %list, align 8, !dbg !1290
  %call37 = call i32 @_ZN16HexxagonMoveList10getNrMovesEv(%class.HexxagonMoveList* %78), !dbg !1290
  %tobool38 = icmp ne i32 %call37, 0, !dbg !1290
  %79 = select i1 %tobool38, i64 28, i64 29, !dbg !1292
  %80 = getelementptr inbounds [39 x i64]* @__llvm_gcov_ctr32, i64 0, i64 %79, !dbg !1292
  %81 = load i64* %80, !dbg !1292
  %82 = add i64 %81, 1, !dbg !1292
  store i64 %82, i64* %80, !dbg !1292
  br i1 %tobool38, label %if.then39, label %if.end40, !dbg !1292

if.then39:                                        ; preds = %for.end36
  %83 = load i64* getelementptr inbounds ([39 x i64]* @__llvm_gcov_ctr32, i64 0, i64 30), !dbg !1293
  %84 = add i64 %83, 1, !dbg !1293
  store i64 %84, i64* getelementptr inbounds ([39 x i64]* @__llvm_gcov_ctr32, i64 0, i64 30), !dbg !1293
  %85 = load %class.HexxagonMoveList** %list, align 8, !dbg !1293
  store %class.HexxagonMoveList* %85, %class.HexxagonMoveList** %retval, !dbg !1294
  br label %return, !dbg !1294

if.end40:                                         ; preds = %for.end36
  %86 = load %class.HexxagonMoveList** %list, align 8, !dbg !1295
  %isnull = icmp eq %class.HexxagonMoveList* %86, null, !dbg !1296
  %87 = select i1 %isnull, i64 31, i64 32, !dbg !1296
  %88 = getelementptr inbounds [39 x i64]* @__llvm_gcov_ctr32, i64 0, i64 %87, !dbg !1296
  %89 = load i64* %88, !dbg !1296
  %90 = add i64 %89, 1, !dbg !1296
  store i64 %90, i64* %88, !dbg !1296
  br i1 %isnull, label %delete.end, label %delete.notnull, !dbg !1296

delete.notnull:                                   ; preds = %if.end40
  store i32 1, i32* @__llvm_gcov_global_state_pred34, !dbg !1297
  invoke void @_ZN16HexxagonMoveListD2Ev(%class.HexxagonMoveList* %86)
          to label %invoke.cont42 unwind label %lpad41, !dbg !1297

invoke.cont42:                                    ; preds = %delete.notnull
  call void @__llvm_gcov_indirect_counter_increment(i32* @__llvm_gcov_global_state_pred34, i64** getelementptr inbounds ([8 x i64*]* @__llvm_gcda_edge_table33, i64 0, i64 4)), !dbg !1298
  %91 = load i64* getelementptr inbounds ([39 x i64]* @__llvm_gcov_ctr32, i64 0, i64 35), !dbg !1298
  %92 = add i64 %91, 1, !dbg !1298
  store i64 %92, i64* getelementptr inbounds ([39 x i64]* @__llvm_gcov_ctr32, i64 0, i64 35), !dbg !1298
  %93 = bitcast %class.HexxagonMoveList* %86 to i8*, !dbg !1298
  call void @_ZdlPv(i8* %93) #10, !dbg !1298
  br label %delete.end, !dbg !1298

delete.end:                                       ; preds = %invoke.cont42, %if.end40
  %94 = load i64* getelementptr inbounds ([39 x i64]* @__llvm_gcov_ctr32, i64 0, i64 36), !dbg !1300
  %95 = add i64 %94, 1, !dbg !1300
  store i64 %95, i64* getelementptr inbounds ([39 x i64]* @__llvm_gcov_ctr32, i64 0, i64 36), !dbg !1300
  store %class.HexxagonMoveList* null, %class.HexxagonMoveList** %retval, !dbg !1300
  br label %return, !dbg !1300

lpad41:                                           ; preds = %delete.notnull
  %96 = landingpad { i8*, i32 } personality i8* bitcast (i32 (...)* @__gxx_personality_v0 to i8*)
          cleanup, !dbg !1222
  call void @__llvm_gcov_indirect_counter_increment(i32* @__llvm_gcov_global_state_pred34, i64** getelementptr inbounds ([8 x i64*]* @__llvm_gcda_edge_table33, i64 0, i64 6)), !dbg !1222
  %97 = load i64* getelementptr inbounds ([39 x i64]* @__llvm_gcov_ctr32, i64 0, i64 37), !dbg !1222
  %98 = add i64 %97, 1, !dbg !1222
  store i64 %98, i64* getelementptr inbounds ([39 x i64]* @__llvm_gcov_ctr32, i64 0, i64 37), !dbg !1222
  %99 = extractvalue { i8*, i32 } %96, 0, !dbg !1222
  store i8* %99, i8** %exn.slot, !dbg !1222
  %100 = extractvalue { i8*, i32 } %96, 1, !dbg !1222
  store i32 %100, i32* %ehselector.slot, !dbg !1222
  %101 = bitcast %class.HexxagonMoveList* %86 to i8*, !dbg !1222
  call void @_ZdlPv(i8* %101) #10, !dbg !1222
  br label %eh.resume, !dbg !1222

return:                                           ; preds = %delete.end, %if.then39
  %102 = load i64* getelementptr inbounds ([39 x i64]* @__llvm_gcov_ctr32, i64 0, i64 38), !dbg !1222
  %103 = add i64 %102, 1, !dbg !1222
  store i64 %103, i64* getelementptr inbounds ([39 x i64]* @__llvm_gcov_ctr32, i64 0, i64 38), !dbg !1222
  %104 = load %class.HexxagonMoveList** %retval, !dbg !1222
  ret %class.HexxagonMoveList* %104, !dbg !1222

eh.resume:                                        ; preds = %lpad41, %lpad
  %exn = load i8** %exn.slot, !dbg !1301
  %sel = load i32* %ehselector.slot, !dbg !1301
  %lpad.val = insertvalue { i8*, i32 } undef, i8* %exn, 0, !dbg !1301
  %lpad.val43 = insertvalue { i8*, i32 } %lpad.val, i32 %sel, 1, !dbg !1301
  resume { i8*, i32 } %lpad.val43, !dbg !1301
}

; Function Attrs: nobuiltin
declare noalias i8* @_Znwm(i64) #5

; Function Attrs: uwtable
define linkonce_odr void @_ZN16HexxagonMoveListC2Ev(%class.HexxagonMoveList* %this) unnamed_addr #4 align 2 {
entry:
  %0 = load i64* getelementptr inbounds ([8 x i64]* @__llvm_gcov_ctr47, i64 0, i64 0)
  %1 = add i64 %0, 1
  store i64 %1, i64* getelementptr inbounds ([8 x i64]* @__llvm_gcov_ctr47, i64 0, i64 0)
  %this.addr = alloca %class.HexxagonMoveList*, align 8
  %exn.slot = alloca i8*
  %ehselector.slot = alloca i32
  br label %2

; <label>:2                                       ; preds = %entry
  %3 = load i64* getelementptr inbounds ([8 x i64]* @__llvm_gcov_ctr47, i64 0, i64 1)
  %4 = add i64 %3, 1
  store i64 %4, i64* getelementptr inbounds ([8 x i64]* @__llvm_gcov_ctr47, i64 0, i64 1)
  store %class.HexxagonMoveList* %this, %class.HexxagonMoveList** %this.addr, align 8
  call void @llvm.dbg.declare(metadata %class.HexxagonMoveList** %this.addr, metadata !1303, metadata !605), !dbg !1304
  %this1 = load %class.HexxagonMoveList** %this.addr
  %call = call noalias i8* @_Znam(i64 128) #9, !dbg !1305
  %5 = bitcast i8* %call to %class.HexxagonMove*, !dbg !1305
  %arrayctor.end = getelementptr inbounds %class.HexxagonMove* %5, i64 16, !dbg !1305
  br label %arrayctor.loop, !dbg !1305

arrayctor.loop:                                   ; preds = %invoke.cont, %2
  %arrayctor.cur = phi %class.HexxagonMove* [ %5, %2 ], [ %arrayctor.next, %invoke.cont ], !dbg !1305
  store i32 0, i32* @__llvm_gcov_global_state_pred49, !dbg !1307
  invoke void @_ZN12HexxagonMoveC2Ev(%class.HexxagonMove* %arrayctor.cur)
          to label %invoke.cont unwind label %lpad, !dbg !1307

invoke.cont:                                      ; preds = %arrayctor.loop
  call void @__llvm_gcov_indirect_counter_increment(i32* @__llvm_gcov_global_state_pred49, i64** getelementptr inbounds ([2 x i64*]* @__llvm_gcda_edge_table48, i64 0, i64 0)), !dbg !1310
  %arrayctor.next = getelementptr inbounds %class.HexxagonMove* %arrayctor.cur, i64 1, !dbg !1310
  %arrayctor.done = icmp eq %class.HexxagonMove* %arrayctor.next, %arrayctor.end, !dbg !1310
  %6 = select i1 %arrayctor.done, i64 4, i64 5, !dbg !1310
  %7 = getelementptr inbounds [8 x i64]* @__llvm_gcov_ctr47, i64 0, i64 %6, !dbg !1310
  %8 = load i64* %7, !dbg !1310
  %9 = add i64 %8, 1, !dbg !1310
  store i64 %9, i64* %7, !dbg !1310
  br i1 %arrayctor.done, label %arrayctor.cont, label %arrayctor.loop, !dbg !1310

arrayctor.cont:                                   ; preds = %invoke.cont
  %10 = load i64* getelementptr inbounds ([8 x i64]* @__llvm_gcov_ctr47, i64 0, i64 6), !dbg !1312
  %11 = add i64 %10, 1, !dbg !1312
  store i64 %11, i64* getelementptr inbounds ([8 x i64]* @__llvm_gcov_ctr47, i64 0, i64 6), !dbg !1312
  %moves = getelementptr inbounds %class.HexxagonMoveList* %this1, i32 0, i32 1, !dbg !1312
  store %class.HexxagonMove* %5, %class.HexxagonMove** %moves, align 8, !dbg !1312
  %nr_moves = getelementptr inbounds %class.HexxagonMoveList* %this1, i32 0, i32 0, !dbg !1314
  store i32 0, i32* %nr_moves, align 4, !dbg !1314
  ret void, !dbg !1315

lpad:                                             ; preds = %arrayctor.loop
  %12 = landingpad { i8*, i32 } personality i8* bitcast (i32 (...)* @__gxx_personality_v0 to i8*)
          cleanup, !dbg !1316
  call void @__llvm_gcov_indirect_counter_increment(i32* @__llvm_gcov_global_state_pred49, i64** getelementptr inbounds ([2 x i64*]* @__llvm_gcda_edge_table48, i64 0, i64 1)), !dbg !1316
  %13 = load i64* getelementptr inbounds ([8 x i64]* @__llvm_gcov_ctr47, i64 0, i64 7), !dbg !1316
  %14 = add i64 %13, 1, !dbg !1316
  store i64 %14, i64* getelementptr inbounds ([8 x i64]* @__llvm_gcov_ctr47, i64 0, i64 7), !dbg !1316
  %15 = extractvalue { i8*, i32 } %12, 0, !dbg !1316
  store i8* %15, i8** %exn.slot, !dbg !1316
  %16 = extractvalue { i8*, i32 } %12, 1, !dbg !1316
  store i32 %16, i32* %ehselector.slot, !dbg !1316
  call void @_ZdaPv(i8* %call) #10, !dbg !1316
  br label %eh.resume, !dbg !1316

eh.resume:                                        ; preds = %lpad
  %exn = load i8** %exn.slot, !dbg !1318
  %sel = load i32* %ehselector.slot, !dbg !1318
  %lpad.val = insertvalue { i8*, i32 } undef, i8* %exn, 0, !dbg !1318
  %lpad.val2 = insertvalue { i8*, i32 } %lpad.val, i32 %sel, 1, !dbg !1318
  resume { i8*, i32 } %lpad.val2, !dbg !1318
}

; Function Attrs: nobuiltin nounwind
declare void @_ZdlPv(i8*) #6

declare i32 @printf(i8*, ...) #0

; Function Attrs: noreturn nounwind
declare void @exit(i32) #7

; Function Attrs: nounwind uwtable
define linkonce_odr void @_ZN12HexxagonMoveC2Ei(%class.HexxagonMove* %this, i32 %t) unnamed_addr #2 align 2 {
entry:
  %0 = load i64* getelementptr inbounds ([2 x i64]* @__llvm_gcov_ctr46, i64 0, i64 0)
  %1 = add i64 %0, 1
  store i64 %1, i64* getelementptr inbounds ([2 x i64]* @__llvm_gcov_ctr46, i64 0, i64 0)
  %this.addr = alloca %class.HexxagonMove*, align 8
  %t.addr = alloca i32, align 4
  br label %2

; <label>:2                                       ; preds = %entry
  %3 = load i64* getelementptr inbounds ([2 x i64]* @__llvm_gcov_ctr46, i64 0, i64 1)
  %4 = add i64 %3, 1
  store i64 %4, i64* getelementptr inbounds ([2 x i64]* @__llvm_gcov_ctr46, i64 0, i64 1)
  store %class.HexxagonMove* %this, %class.HexxagonMove** %this.addr, align 8
  call void @llvm.dbg.declare(metadata %class.HexxagonMove** %this.addr, metadata !1320, metadata !605), !dbg !1321
  store i32 %t, i32* %t.addr, align 4
  call void @llvm.dbg.declare(metadata i32* %t.addr, metadata !1322, metadata !605), !dbg !1324
  %this1 = load %class.HexxagonMove** %this.addr
  %5 = load i32* %t.addr, align 4, !dbg !1325
  %conv = trunc i32 %5 to i8, !dbg !1325
  %from = getelementptr inbounds %class.HexxagonMove* %this1, i32 0, i32 0, !dbg !1327
  store i8 %conv, i8* %from, align 1, !dbg !1327
  %6 = load i32* %t.addr, align 4, !dbg !1328
  %conv2 = trunc i32 %6 to i8, !dbg !1328
  %to = getelementptr inbounds %class.HexxagonMove* %this1, i32 0, i32 1, !dbg !1329
  store i8 %conv2, i8* %to, align 1, !dbg !1329
  ret void, !dbg !1330
}

declare void @_ZN16HexxagonMoveList7addMoveER12HexxagonMove(%class.HexxagonMoveList*, %class.HexxagonMove* dereferenceable(8)) #0

; Function Attrs: nounwind uwtable
define linkonce_odr void @_ZN12HexxagonMoveC2Eii(%class.HexxagonMove* %this, i32 %f, i32 %t) unnamed_addr #2 align 2 {
entry:
  %0 = load i64* getelementptr inbounds ([2 x i64]* @__llvm_gcov_ctr45, i64 0, i64 0)
  %1 = add i64 %0, 1
  store i64 %1, i64* getelementptr inbounds ([2 x i64]* @__llvm_gcov_ctr45, i64 0, i64 0)
  %this.addr = alloca %class.HexxagonMove*, align 8
  %f.addr = alloca i32, align 4
  %t.addr = alloca i32, align 4
  br label %2

; <label>:2                                       ; preds = %entry
  %3 = load i64* getelementptr inbounds ([2 x i64]* @__llvm_gcov_ctr45, i64 0, i64 1)
  %4 = add i64 %3, 1
  store i64 %4, i64* getelementptr inbounds ([2 x i64]* @__llvm_gcov_ctr45, i64 0, i64 1)
  store %class.HexxagonMove* %this, %class.HexxagonMove** %this.addr, align 8
  call void @llvm.dbg.declare(metadata %class.HexxagonMove** %this.addr, metadata !1331, metadata !605), !dbg !1332
  store i32 %f, i32* %f.addr, align 4
  call void @llvm.dbg.declare(metadata i32* %f.addr, metadata !1333, metadata !605), !dbg !1334
  store i32 %t, i32* %t.addr, align 4
  call void @llvm.dbg.declare(metadata i32* %t.addr, metadata !1335, metadata !605), !dbg !1336
  %this1 = load %class.HexxagonMove** %this.addr
  %5 = load i32* %f.addr, align 4, !dbg !1337
  %conv = trunc i32 %5 to i8, !dbg !1337
  %from = getelementptr inbounds %class.HexxagonMove* %this1, i32 0, i32 0, !dbg !1339
  store i8 %conv, i8* %from, align 1, !dbg !1339
  %6 = load i32* %t.addr, align 4, !dbg !1340
  %conv2 = trunc i32 %6 to i8, !dbg !1340
  %to = getelementptr inbounds %class.HexxagonMove* %this1, i32 0, i32 1, !dbg !1341
  store i8 %conv2, i8* %to, align 1, !dbg !1341
  ret void, !dbg !1342
}

declare i32 @_ZN16HexxagonMoveList10getNrMovesEv(%class.HexxagonMoveList*) #0

; Function Attrs: nounwind uwtable
define linkonce_odr void @_ZN16HexxagonMoveListD2Ev(%class.HexxagonMoveList* %this) unnamed_addr #2 align 2 {
entry:
  %0 = load i64* getelementptr inbounds ([5 x i64]* @__llvm_gcov_ctr44, i64 0, i64 0)
  %1 = add i64 %0, 1
  store i64 %1, i64* getelementptr inbounds ([5 x i64]* @__llvm_gcov_ctr44, i64 0, i64 0)
  %this.addr = alloca %class.HexxagonMoveList*, align 8
  br label %2

; <label>:2                                       ; preds = %entry
  store %class.HexxagonMoveList* %this, %class.HexxagonMoveList** %this.addr, align 8
  call void @llvm.dbg.declare(metadata %class.HexxagonMoveList** %this.addr, metadata !1343, metadata !605), !dbg !1344
  %this1 = load %class.HexxagonMoveList** %this.addr
  %moves = getelementptr inbounds %class.HexxagonMoveList* %this1, i32 0, i32 1, !dbg !1345
  %3 = load %class.HexxagonMove** %moves, align 8, !dbg !1345
  %isnull = icmp eq %class.HexxagonMove* %3, null, !dbg !1347
  %4 = select i1 %isnull, i64 1, i64 2, !dbg !1347
  %5 = getelementptr inbounds [5 x i64]* @__llvm_gcov_ctr44, i64 0, i64 %4, !dbg !1347
  %6 = load i64* %5, !dbg !1347
  %7 = add i64 %6, 1, !dbg !1347
  store i64 %7, i64* %5, !dbg !1347
  br i1 %isnull, label %delete.end, label %delete.notnull, !dbg !1347

delete.notnull:                                   ; preds = %2
  %8 = load i64* getelementptr inbounds ([5 x i64]* @__llvm_gcov_ctr44, i64 0, i64 3), !dbg !1348
  %9 = add i64 %8, 1, !dbg !1348
  store i64 %9, i64* getelementptr inbounds ([5 x i64]* @__llvm_gcov_ctr44, i64 0, i64 3), !dbg !1348
  %10 = bitcast %class.HexxagonMove* %3 to i8*, !dbg !1348
  call void @_ZdlPv(i8* %10) #10, !dbg !1348
  br label %delete.end, !dbg !1348

delete.end:                                       ; preds = %delete.notnull, %2
  %11 = load i64* getelementptr inbounds ([5 x i64]* @__llvm_gcov_ctr44, i64 0, i64 4), !dbg !1350
  %12 = add i64 %11, 1, !dbg !1350
  store i64 %12, i64* getelementptr inbounds ([5 x i64]* @__llvm_gcov_ctr44, i64 0, i64 4), !dbg !1350
  ret void, !dbg !1350
}

; Function Attrs: uwtable
define i32 @_ZN13HexxagonBoard9endOfGameEv(%class.HexxagonBoard* %this) #4 align 2 {
entry:
  %0 = load i64* getelementptr inbounds ([12 x i64]* @__llvm_gcov_ctr35, i64 0, i64 0)
  %1 = add i64 %0, 1
  store i64 %1, i64* getelementptr inbounds ([12 x i64]* @__llvm_gcov_ctr35, i64 0, i64 0)
  %retval = alloca i32, align 4
  %this.addr = alloca %class.HexxagonBoard*, align 8
  %movelist = alloca %class.HexxagonMoveList*, align 8
  %exn.slot = alloca i8*
  %ehselector.slot = alloca i32
  br label %2

; <label>:2                                       ; preds = %entry
  store %class.HexxagonBoard* %this, %class.HexxagonBoard** %this.addr, align 8
  call void @llvm.dbg.declare(metadata %class.HexxagonBoard** %this.addr, metadata !1353, metadata !605), !dbg !1354
  %this1 = load %class.HexxagonBoard** %this.addr
  call void @llvm.dbg.declare(metadata %class.HexxagonMoveList** %movelist, metadata !1355, metadata !605), !dbg !1356
  %call = call %class.HexxagonMoveList* @_ZN13HexxagonBoard16generateMoveListEv(%class.HexxagonBoard* %this1), !dbg !1357
  store %class.HexxagonMoveList* %call, %class.HexxagonMoveList** %movelist, align 8, !dbg !1358
  %3 = load %class.HexxagonMoveList** %movelist, align 8, !dbg !1359
  %tobool = icmp ne %class.HexxagonMoveList* %3, null, !dbg !1359
  %4 = select i1 %tobool, i64 1, i64 2, !dbg !1361
  %5 = getelementptr inbounds [12 x i64]* @__llvm_gcov_ctr35, i64 0, i64 %4, !dbg !1361
  %6 = load i64* %5, !dbg !1361
  %7 = add i64 %6, 1, !dbg !1361
  store i64 %7, i64* %5, !dbg !1361
  br i1 %tobool, label %if.end, label %if.then, !dbg !1361

if.then:                                          ; preds = %2
  %8 = load i64* getelementptr inbounds ([12 x i64]* @__llvm_gcov_ctr35, i64 0, i64 3), !dbg !1362
  %9 = add i64 %8, 1, !dbg !1362
  store i64 %9, i64* getelementptr inbounds ([12 x i64]* @__llvm_gcov_ctr35, i64 0, i64 3), !dbg !1362
  store i32 1, i32* %retval, !dbg !1362
  br label %return, !dbg !1362

if.end:                                           ; preds = %2
  %10 = load %class.HexxagonMoveList** %movelist, align 8, !dbg !1363
  %isnull = icmp eq %class.HexxagonMoveList* %10, null, !dbg !1364
  %11 = select i1 %isnull, i64 4, i64 5, !dbg !1364
  %12 = getelementptr inbounds [12 x i64]* @__llvm_gcov_ctr35, i64 0, i64 %11, !dbg !1364
  %13 = load i64* %12, !dbg !1364
  %14 = add i64 %13, 1, !dbg !1364
  store i64 %14, i64* %12, !dbg !1364
  br i1 %isnull, label %delete.end, label %delete.notnull, !dbg !1364

delete.notnull:                                   ; preds = %if.end
  store i32 0, i32* @__llvm_gcov_global_state_pred37, !dbg !1365
  invoke void @_ZN16HexxagonMoveListD2Ev(%class.HexxagonMoveList* %10)
          to label %invoke.cont unwind label %lpad, !dbg !1365

invoke.cont:                                      ; preds = %delete.notnull
  call void @__llvm_gcov_indirect_counter_increment(i32* @__llvm_gcov_global_state_pred37, i64** getelementptr inbounds ([2 x i64*]* @__llvm_gcda_edge_table36, i64 0, i64 0)), !dbg !1367
  %15 = load i64* getelementptr inbounds ([12 x i64]* @__llvm_gcov_ctr35, i64 0, i64 8), !dbg !1367
  %16 = add i64 %15, 1, !dbg !1367
  store i64 %16, i64* getelementptr inbounds ([12 x i64]* @__llvm_gcov_ctr35, i64 0, i64 8), !dbg !1367
  %17 = bitcast %class.HexxagonMoveList* %10 to i8*, !dbg !1367
  call void @_ZdlPv(i8* %17) #10, !dbg !1367
  br label %delete.end, !dbg !1367

delete.end:                                       ; preds = %invoke.cont, %if.end
  %18 = load i64* getelementptr inbounds ([12 x i64]* @__llvm_gcov_ctr35, i64 0, i64 9), !dbg !1369
  %19 = add i64 %18, 1, !dbg !1369
  store i64 %19, i64* getelementptr inbounds ([12 x i64]* @__llvm_gcov_ctr35, i64 0, i64 9), !dbg !1369
  store i32 0, i32* %retval, !dbg !1369
  br label %return, !dbg !1369

lpad:                                             ; preds = %delete.notnull
  %20 = landingpad { i8*, i32 } personality i8* bitcast (i32 (...)* @__gxx_personality_v0 to i8*)
          cleanup, !dbg !1370
  call void @__llvm_gcov_indirect_counter_increment(i32* @__llvm_gcov_global_state_pred37, i64** getelementptr inbounds ([2 x i64*]* @__llvm_gcda_edge_table36, i64 0, i64 1)), !dbg !1370
  %21 = load i64* getelementptr inbounds ([12 x i64]* @__llvm_gcov_ctr35, i64 0, i64 10), !dbg !1370
  %22 = add i64 %21, 1, !dbg !1370
  store i64 %22, i64* getelementptr inbounds ([12 x i64]* @__llvm_gcov_ctr35, i64 0, i64 10), !dbg !1370
  %23 = extractvalue { i8*, i32 } %20, 0, !dbg !1370
  store i8* %23, i8** %exn.slot, !dbg !1370
  %24 = extractvalue { i8*, i32 } %20, 1, !dbg !1370
  store i32 %24, i32* %ehselector.slot, !dbg !1370
  %25 = bitcast %class.HexxagonMoveList* %10 to i8*, !dbg !1370
  call void @_ZdlPv(i8* %25) #10, !dbg !1370
  br label %eh.resume, !dbg !1370

return:                                           ; preds = %delete.end, %if.then
  %26 = load i64* getelementptr inbounds ([12 x i64]* @__llvm_gcov_ctr35, i64 0, i64 11), !dbg !1370
  %27 = add i64 %26, 1, !dbg !1370
  store i64 %27, i64* getelementptr inbounds ([12 x i64]* @__llvm_gcov_ctr35, i64 0, i64 11), !dbg !1370
  %28 = load i32* %retval, !dbg !1370
  ret i32 %28, !dbg !1370

eh.resume:                                        ; preds = %lpad
  %exn = load i8** %exn.slot, !dbg !1371
  %sel = load i32* %ehselector.slot, !dbg !1371
  %lpad.val = insertvalue { i8*, i32 } undef, i8* %exn, 0, !dbg !1371
  %lpad.val2 = insertvalue { i8*, i32 } %lpad.val, i32 %sel, 1, !dbg !1371
  resume { i8*, i32 } %lpad.val2, !dbg !1371
}

; Function Attrs: uwtable
define i32 @_ZN13HexxagonBoard12computerMoveEiPFvvEi(%class.HexxagonBoard* %this, i32 %depth, void ()* %callback, i32 %maxtime) #4 align 2 {
entry:
  %0 = load i64* getelementptr inbounds ([12 x i64]* @__llvm_gcov_ctr38, i64 0, i64 0)
  %1 = add i64 %0, 1
  store i64 %1, i64* getelementptr inbounds ([12 x i64]* @__llvm_gcov_ctr38, i64 0, i64 0)
  %retval = alloca i32, align 4
  %this.addr = alloca %class.HexxagonBoard*, align 8
  %depth.addr = alloca i32, align 4
  %callback.addr = alloca void ()*, align 8
  %maxtime.addr = alloca i32, align 4
  %movelist = alloca %class.HexxagonMoveList*, align 8
  %agg.tmp = alloca %class.HexxagonBoard, align 4
  %exn.slot = alloca i8*
  %ehselector.slot = alloca i32
  br label %2

; <label>:2                                       ; preds = %entry
  store %class.HexxagonBoard* %this, %class.HexxagonBoard** %this.addr, align 8
  call void @llvm.dbg.declare(metadata %class.HexxagonBoard** %this.addr, metadata !1372, metadata !605), !dbg !1373
  store i32 %depth, i32* %depth.addr, align 4
  call void @llvm.dbg.declare(metadata i32* %depth.addr, metadata !1374, metadata !605), !dbg !1375
  store void ()* %callback, void ()** %callback.addr, align 8
  call void @llvm.dbg.declare(metadata void ()** %callback.addr, metadata !1376, metadata !605), !dbg !1377
  store i32 %maxtime, i32* %maxtime.addr, align 4
  call void @llvm.dbg.declare(metadata i32* %maxtime.addr, metadata !1378, metadata !605), !dbg !1379
  %this1 = load %class.HexxagonBoard** %this.addr
  call void @llvm.dbg.declare(metadata %class.HexxagonMoveList** %movelist, metadata !1380, metadata !605), !dbg !1381
  %call = call %class.HexxagonMoveList* @_ZN13HexxagonBoard16generateMoveListEv(%class.HexxagonBoard* %this1), !dbg !1382
  store %class.HexxagonMoveList* %call, %class.HexxagonMoveList** %movelist, align 8, !dbg !1384
  %tobool = icmp ne %class.HexxagonMoveList* %call, null, !dbg !1385
  %3 = select i1 %tobool, i64 1, i64 2, !dbg !1386
  %4 = getelementptr inbounds [12 x i64]* @__llvm_gcov_ctr38, i64 0, i64 %3, !dbg !1386
  %5 = load i64* %4, !dbg !1386
  %6 = add i64 %5, 1, !dbg !1386
  store i64 %6, i64* %4, !dbg !1386
  br i1 %tobool, label %if.end, label %if.then, !dbg !1386

if.then:                                          ; preds = %2
  %7 = load i64* getelementptr inbounds ([12 x i64]* @__llvm_gcov_ctr38, i64 0, i64 3), !dbg !1387
  %8 = add i64 %7, 1, !dbg !1387
  store i64 %8, i64* getelementptr inbounds ([12 x i64]* @__llvm_gcov_ctr38, i64 0, i64 3), !dbg !1387
  %call2 = call i32 (i8*, ...)* @printf(i8* getelementptr inbounds ([16 x i8]* @.str1, i32 0, i32 0)), !dbg !1387
  store i32 -1, i32* %retval, !dbg !1389
  br label %return, !dbg !1389

if.end:                                           ; preds = %2
  %9 = load %class.HexxagonMoveList** %movelist, align 8, !dbg !1390
  call void @_ZN13HexxagonBoardC1ERKS_(%class.HexxagonBoard* %agg.tmp, %class.HexxagonBoard* dereferenceable(16) %this1), !dbg !1390
  %10 = load i32* %depth.addr, align 4, !dbg !1391
  %11 = load void ()** %callback.addr, align 8, !dbg !1392
  %12 = load i32* %maxtime.addr, align 4, !dbg !1393
  call void @_ZN16HexxagonMoveList13scoreAllMovesE13HexxagonBoardiPFvvEi(%class.HexxagonMoveList* %9, %class.HexxagonBoard* %agg.tmp, i32 %10, void ()* %11, i32 %12), !dbg !1390
  %13 = load %class.HexxagonMoveList** %movelist, align 8, !dbg !1394
  %call3 = call %class.HexxagonMove* @_ZN16HexxagonMoveList11getBestMoveEv(%class.HexxagonMoveList* %13), !dbg !1394
  %call4 = call i32 @_ZN13HexxagonBoard9applyMoveER12HexxagonMove(%class.HexxagonBoard* %this1, %class.HexxagonMove* dereferenceable(8) %call3), !dbg !1395
  %14 = load %class.HexxagonMoveList** %movelist, align 8, !dbg !1396
  %isnull = icmp eq %class.HexxagonMoveList* %14, null, !dbg !1397
  %15 = select i1 %isnull, i64 4, i64 5, !dbg !1397
  %16 = getelementptr inbounds [12 x i64]* @__llvm_gcov_ctr38, i64 0, i64 %15, !dbg !1397
  %17 = load i64* %16, !dbg !1397
  %18 = add i64 %17, 1, !dbg !1397
  store i64 %18, i64* %16, !dbg !1397
  br i1 %isnull, label %delete.end, label %delete.notnull, !dbg !1397

delete.notnull:                                   ; preds = %if.end
  store i32 0, i32* @__llvm_gcov_global_state_pred40, !dbg !1398
  invoke void @_ZN16HexxagonMoveListD2Ev(%class.HexxagonMoveList* %14)
          to label %invoke.cont unwind label %lpad, !dbg !1398

invoke.cont:                                      ; preds = %delete.notnull
  call void @__llvm_gcov_indirect_counter_increment(i32* @__llvm_gcov_global_state_pred40, i64** getelementptr inbounds ([2 x i64*]* @__llvm_gcda_edge_table39, i64 0, i64 0)), !dbg !1400
  %19 = load i64* getelementptr inbounds ([12 x i64]* @__llvm_gcov_ctr38, i64 0, i64 8), !dbg !1400
  %20 = add i64 %19, 1, !dbg !1400
  store i64 %20, i64* getelementptr inbounds ([12 x i64]* @__llvm_gcov_ctr38, i64 0, i64 8), !dbg !1400
  %21 = bitcast %class.HexxagonMoveList* %14 to i8*, !dbg !1400
  call void @_ZdlPv(i8* %21) #10, !dbg !1400
  br label %delete.end, !dbg !1400

delete.end:                                       ; preds = %invoke.cont, %if.end
  %22 = load i64* getelementptr inbounds ([12 x i64]* @__llvm_gcov_ctr38, i64 0, i64 9), !dbg !1402
  %23 = add i64 %22, 1, !dbg !1402
  store i64 %23, i64* getelementptr inbounds ([12 x i64]* @__llvm_gcov_ctr38, i64 0, i64 9), !dbg !1402
  store i32 0, i32* %retval, !dbg !1402
  br label %return, !dbg !1402

lpad:                                             ; preds = %delete.notnull
  %24 = landingpad { i8*, i32 } personality i8* bitcast (i32 (...)* @__gxx_personality_v0 to i8*)
          cleanup, !dbg !1403
  call void @__llvm_gcov_indirect_counter_increment(i32* @__llvm_gcov_global_state_pred40, i64** getelementptr inbounds ([2 x i64*]* @__llvm_gcda_edge_table39, i64 0, i64 1)), !dbg !1403
  %25 = load i64* getelementptr inbounds ([12 x i64]* @__llvm_gcov_ctr38, i64 0, i64 10), !dbg !1403
  %26 = add i64 %25, 1, !dbg !1403
  store i64 %26, i64* getelementptr inbounds ([12 x i64]* @__llvm_gcov_ctr38, i64 0, i64 10), !dbg !1403
  %27 = extractvalue { i8*, i32 } %24, 0, !dbg !1403
  store i8* %27, i8** %exn.slot, !dbg !1403
  %28 = extractvalue { i8*, i32 } %24, 1, !dbg !1403
  store i32 %28, i32* %ehselector.slot, !dbg !1403
  %29 = bitcast %class.HexxagonMoveList* %14 to i8*, !dbg !1403
  call void @_ZdlPv(i8* %29) #10, !dbg !1403
  br label %eh.resume, !dbg !1403

return:                                           ; preds = %delete.end, %if.then
  %30 = load i64* getelementptr inbounds ([12 x i64]* @__llvm_gcov_ctr38, i64 0, i64 11), !dbg !1403
  %31 = add i64 %30, 1, !dbg !1403
  store i64 %31, i64* getelementptr inbounds ([12 x i64]* @__llvm_gcov_ctr38, i64 0, i64 11), !dbg !1403
  %32 = load i32* %retval, !dbg !1403
  ret i32 %32, !dbg !1403

eh.resume:                                        ; preds = %lpad
  %exn = load i8** %exn.slot, !dbg !1404
  %sel = load i32* %ehselector.slot, !dbg !1404
  %lpad.val = insertvalue { i8*, i32 } undef, i8* %exn, 0, !dbg !1404
  %lpad.val5 = insertvalue { i8*, i32 } %lpad.val, i32 %sel, 1, !dbg !1404
  resume { i8*, i32 } %lpad.val5, !dbg !1404
}

declare void @_ZN16HexxagonMoveList13scoreAllMovesE13HexxagonBoardiPFvvEi(%class.HexxagonMoveList*, %class.HexxagonBoard*, i32, void ()*, i32) #0

declare %class.HexxagonMove* @_ZN16HexxagonMoveList11getBestMoveEv(%class.HexxagonMoveList*) #0

; Function Attrs: uwtable
define i32 @_ZN13HexxagonBoard12readFromFileEP8_IO_FILE(%class.HexxagonBoard* %this, %struct._IO_FILE* %file) #4 align 2 {
entry:
  %0 = load i64* getelementptr inbounds ([8 x i64]* @__llvm_gcov_ctr41, i64 0, i64 0)
  %1 = add i64 %0, 1
  store i64 %1, i64* getelementptr inbounds ([8 x i64]* @__llvm_gcov_ctr41, i64 0, i64 0)
  %retval = alloca i32, align 4
  %this.addr = alloca %class.HexxagonBoard*, align 8
  %file.addr = alloca %struct._IO_FILE*, align 8
  br label %2

; <label>:2                                       ; preds = %entry
  store %class.HexxagonBoard* %this, %class.HexxagonBoard** %this.addr, align 8
  call void @llvm.dbg.declare(metadata %class.HexxagonBoard** %this.addr, metadata !1405, metadata !605), !dbg !1406
  store %struct._IO_FILE* %file, %struct._IO_FILE** %file.addr, align 8
  call void @llvm.dbg.declare(metadata %struct._IO_FILE** %file.addr, metadata !1407, metadata !605), !dbg !1408
  %this1 = load %class.HexxagonBoard** %this.addr
  %color = getelementptr inbounds %class.HexxagonBoard* %this1, i32 0, i32 1, !dbg !1409
  %3 = load %struct._IO_FILE** %file.addr, align 8, !dbg !1411
  %call = call i32 @_ZN10BitBoard6412readFromFileEP8_IO_FILE(%class.BitBoard64* %color, %struct._IO_FILE* %3), !dbg !1409
  %tobool = icmp ne i32 %call, 0, !dbg !1409
  %4 = select i1 %tobool, i64 1, i64 2, !dbg !1412
  %5 = getelementptr inbounds [8 x i64]* @__llvm_gcov_ctr41, i64 0, i64 %4, !dbg !1412
  %6 = load i64* %5, !dbg !1412
  %7 = add i64 %6, 1, !dbg !1412
  store i64 %7, i64* %5, !dbg !1412
  br i1 %tobool, label %if.then, label %lor.lhs.false, !dbg !1412

lor.lhs.false:                                    ; preds = %2
  %board = getelementptr inbounds %class.HexxagonBoard* %this1, i32 0, i32 0, !dbg !1413
  %8 = load %struct._IO_FILE** %file.addr, align 8, !dbg !1415
  %call2 = call i32 @_ZN10BitBoard6412readFromFileEP8_IO_FILE(%class.BitBoard64* %board, %struct._IO_FILE* %8), !dbg !1416
  %tobool3 = icmp ne i32 %call2, 0, !dbg !1416
  %9 = select i1 %tobool3, i64 3, i64 4, !dbg !1412
  %10 = getelementptr inbounds [8 x i64]* @__llvm_gcov_ctr41, i64 0, i64 %9, !dbg !1412
  %11 = load i64* %10, !dbg !1412
  %12 = add i64 %11, 1, !dbg !1412
  store i64 %12, i64* %10, !dbg !1412
  br i1 %tobool3, label %if.then, label %if.else, !dbg !1412

if.then:                                          ; preds = %lor.lhs.false, %2
  %13 = load i64* getelementptr inbounds ([8 x i64]* @__llvm_gcov_ctr41, i64 0, i64 5), !dbg !1417
  %14 = add i64 %13, 1, !dbg !1417
  store i64 %14, i64* getelementptr inbounds ([8 x i64]* @__llvm_gcov_ctr41, i64 0, i64 5), !dbg !1417
  store i32 -1, i32* %retval, !dbg !1417
  br label %return, !dbg !1417

if.else:                                          ; preds = %lor.lhs.false
  %15 = load i64* getelementptr inbounds ([8 x i64]* @__llvm_gcov_ctr41, i64 0, i64 6), !dbg !1418
  %16 = add i64 %15, 1, !dbg !1418
  store i64 %16, i64* getelementptr inbounds ([8 x i64]* @__llvm_gcov_ctr41, i64 0, i64 6), !dbg !1418
  store i32 0, i32* %retval, !dbg !1418
  br label %return, !dbg !1418

return:                                           ; preds = %if.else, %if.then
  %17 = load i64* getelementptr inbounds ([8 x i64]* @__llvm_gcov_ctr41, i64 0, i64 7), !dbg !1419
  %18 = add i64 %17, 1, !dbg !1419
  store i64 %18, i64* getelementptr inbounds ([8 x i64]* @__llvm_gcov_ctr41, i64 0, i64 7), !dbg !1419
  %19 = load i32* %retval, !dbg !1419
  ret i32 %19, !dbg !1419
}

declare i32 @_ZN10BitBoard6412readFromFileEP8_IO_FILE(%class.BitBoard64*, %struct._IO_FILE*) #0

; Function Attrs: uwtable
define i32 @_ZN13HexxagonBoard11writeToFileEP8_IO_FILE(%class.HexxagonBoard* %this, %struct._IO_FILE* %file) #4 align 2 {
entry:
  %0 = load i64* getelementptr inbounds ([8 x i64]* @__llvm_gcov_ctr42, i64 0, i64 0)
  %1 = add i64 %0, 1
  store i64 %1, i64* getelementptr inbounds ([8 x i64]* @__llvm_gcov_ctr42, i64 0, i64 0)
  %retval = alloca i32, align 4
  %this.addr = alloca %class.HexxagonBoard*, align 8
  %file.addr = alloca %struct._IO_FILE*, align 8
  br label %2

; <label>:2                                       ; preds = %entry
  store %class.HexxagonBoard* %this, %class.HexxagonBoard** %this.addr, align 8
  call void @llvm.dbg.declare(metadata %class.HexxagonBoard** %this.addr, metadata !1420, metadata !605), !dbg !1421
  store %struct._IO_FILE* %file, %struct._IO_FILE** %file.addr, align 8
  call void @llvm.dbg.declare(metadata %struct._IO_FILE** %file.addr, metadata !1422, metadata !605), !dbg !1423
  %this1 = load %class.HexxagonBoard** %this.addr
  %color = getelementptr inbounds %class.HexxagonBoard* %this1, i32 0, i32 1, !dbg !1424
  %3 = load %struct._IO_FILE** %file.addr, align 8, !dbg !1426
  %call = call i32 @_ZN10BitBoard6411writeToFileEP8_IO_FILE(%class.BitBoard64* %color, %struct._IO_FILE* %3), !dbg !1424
  %tobool = icmp ne i32 %call, 0, !dbg !1424
  %4 = select i1 %tobool, i64 1, i64 2, !dbg !1427
  %5 = getelementptr inbounds [8 x i64]* @__llvm_gcov_ctr42, i64 0, i64 %4, !dbg !1427
  %6 = load i64* %5, !dbg !1427
  %7 = add i64 %6, 1, !dbg !1427
  store i64 %7, i64* %5, !dbg !1427
  br i1 %tobool, label %if.then, label %lor.lhs.false, !dbg !1427

lor.lhs.false:                                    ; preds = %2
  %board = getelementptr inbounds %class.HexxagonBoard* %this1, i32 0, i32 0, !dbg !1428
  %8 = load %struct._IO_FILE** %file.addr, align 8, !dbg !1430
  %call2 = call i32 @_ZN10BitBoard6411writeToFileEP8_IO_FILE(%class.BitBoard64* %board, %struct._IO_FILE* %8), !dbg !1431
  %tobool3 = icmp ne i32 %call2, 0, !dbg !1431
  %9 = select i1 %tobool3, i64 3, i64 4, !dbg !1427
  %10 = getelementptr inbounds [8 x i64]* @__llvm_gcov_ctr42, i64 0, i64 %9, !dbg !1427
  %11 = load i64* %10, !dbg !1427
  %12 = add i64 %11, 1, !dbg !1427
  store i64 %12, i64* %10, !dbg !1427
  br i1 %tobool3, label %if.then, label %if.else, !dbg !1427

if.then:                                          ; preds = %lor.lhs.false, %2
  %13 = load i64* getelementptr inbounds ([8 x i64]* @__llvm_gcov_ctr42, i64 0, i64 5), !dbg !1432
  %14 = add i64 %13, 1, !dbg !1432
  store i64 %14, i64* getelementptr inbounds ([8 x i64]* @__llvm_gcov_ctr42, i64 0, i64 5), !dbg !1432
  store i32 -1, i32* %retval, !dbg !1432
  br label %return, !dbg !1432

if.else:                                          ; preds = %lor.lhs.false
  %15 = load i64* getelementptr inbounds ([8 x i64]* @__llvm_gcov_ctr42, i64 0, i64 6), !dbg !1433
  %16 = add i64 %15, 1, !dbg !1433
  store i64 %16, i64* getelementptr inbounds ([8 x i64]* @__llvm_gcov_ctr42, i64 0, i64 6), !dbg !1433
  store i32 0, i32* %retval, !dbg !1433
  br label %return, !dbg !1433

return:                                           ; preds = %if.else, %if.then
  %17 = load i64* getelementptr inbounds ([8 x i64]* @__llvm_gcov_ctr42, i64 0, i64 7), !dbg !1434
  %18 = add i64 %17, 1, !dbg !1434
  store i64 %18, i64* getelementptr inbounds ([8 x i64]* @__llvm_gcov_ctr42, i64 0, i64 7), !dbg !1434
  %19 = load i32* %retval, !dbg !1434
  ret i32 %19, !dbg !1434
}

declare i32 @_ZN10BitBoard6411writeToFileEP8_IO_FILE(%class.BitBoard64*, %struct._IO_FILE*) #0

; Function Attrs: uwtable
define void @_ZN13HexxagonBoard16displayBoardTextEi(%class.HexxagonBoard* %this, i32 %turn) #4 align 2 {
entry:
  %0 = load i64* getelementptr inbounds ([55 x i64]* @__llvm_gcov_ctr43, i64 0, i64 0)
  %1 = add i64 %0, 1
  store i64 %1, i64* getelementptr inbounds ([55 x i64]* @__llvm_gcov_ctr43, i64 0, i64 0)
  %this.addr = alloca %class.HexxagonBoard*, align 8
  %turn.addr = alloca i32, align 4
  %c = alloca %class.BitBoard64, align 4
  %ref.tmp = alloca %class.BitBoard64, align 4
  %coerce = alloca %class.BitBoard64, align 4
  %y = alloca i32, align 4
  %off = alloca i32, align 4
  %x = alloca i32, align 4
  %no = alloca i32, align 4
  %empty = alloca i32, align 4
  br label %2

; <label>:2                                       ; preds = %entry
  store %class.HexxagonBoard* %this, %class.HexxagonBoard** %this.addr, align 8
  call void @llvm.dbg.declare(metadata %class.HexxagonBoard** %this.addr, metadata !1435, metadata !605), !dbg !1436
  store i32 %turn, i32* %turn.addr, align 4
  call void @llvm.dbg.declare(metadata i32* %turn.addr, metadata !1437, metadata !605), !dbg !1438
  %this1 = load %class.HexxagonBoard** %this.addr
  call void @llvm.dbg.declare(metadata %class.BitBoard64* %c, metadata !1439, metadata !605), !dbg !1440
  %color = getelementptr inbounds %class.HexxagonBoard* %this1, i32 0, i32 1, !dbg !1440
  %3 = bitcast %class.BitBoard64* %c to i8*, !dbg !1440
  %4 = bitcast %class.BitBoard64* %color to i8*, !dbg !1440
  call void @llvm.memcpy.p0i8.p0i8.i64(i8* %3, i8* %4, i64 8, i32 4, i1 false), !dbg !1440
  %5 = load i32* %turn.addr, align 4, !dbg !1441
  %tobool = icmp ne i32 %5, 0, !dbg !1441
  %6 = select i1 %tobool, i64 1, i64 2, !dbg !1443
  %7 = getelementptr inbounds [55 x i64]* @__llvm_gcov_ctr43, i64 0, i64 %6, !dbg !1443
  %8 = load i64* %7, !dbg !1443
  %9 = add i64 %8, 1, !dbg !1443
  store i64 %9, i64* %7, !dbg !1443
  br i1 %tobool, label %if.end, label %if.then, !dbg !1443

if.then:                                          ; preds = %2
  %10 = load i64* getelementptr inbounds ([55 x i64]* @__llvm_gcov_ctr43, i64 0, i64 3), !dbg !1444
  %11 = add i64 %10, 1, !dbg !1444
  store i64 %11, i64* getelementptr inbounds ([55 x i64]* @__llvm_gcov_ctr43, i64 0, i64 3), !dbg !1444
  %call = call i64 @_ZN10BitBoard64coEv(%class.BitBoard64* %c), !dbg !1444
  %12 = bitcast %class.BitBoard64* %ref.tmp to i64*, !dbg !1444
  store i64 %call, i64* %12, align 1, !dbg !1444
  %call2 = call i64 @_ZN10BitBoard64aSERKS_(%class.BitBoard64* %c, %class.BitBoard64* dereferenceable(8) %ref.tmp), !dbg !1445
  %13 = bitcast %class.BitBoard64* %coerce to i64*, !dbg !1445
  store i64 %call2, i64* %13, align 1, !dbg !1445
  br label %if.end, !dbg !1445

if.end:                                           ; preds = %if.then, %2
  %14 = load i64* getelementptr inbounds ([55 x i64]* @__llvm_gcov_ctr43, i64 0, i64 4), !dbg !1446
  %15 = add i64 %14, 1, !dbg !1446
  store i64 %15, i64* getelementptr inbounds ([55 x i64]* @__llvm_gcov_ctr43, i64 0, i64 4), !dbg !1446
  %call3 = call dereferenceable(272) %"class.std::basic_ostream"* @_ZStlsISt11char_traitsIcEERSt13basic_ostreamIcT_ES5_PKc(%"class.std::basic_ostream"* dereferenceable(272) @_ZSt4cout, i8* getelementptr inbounds ([28 x i8]* @.str2, i32 0, i32 0)), !dbg !1446
  %call4 = call dereferenceable(272) %"class.std::basic_ostream"* @_ZStlsISt11char_traitsIcEERSt13basic_ostreamIcT_ES5_PKc(%"class.std::basic_ostream"* dereferenceable(272) @_ZSt4cout, i8* getelementptr inbounds ([27 x i8]* @.str3, i32 0, i32 0)), !dbg !1447
  call void @llvm.dbg.declare(metadata i32* %y, metadata !1448, metadata !605), !dbg !1450
  store i32 1, i32* %y, align 4, !dbg !1450
  br label %for.cond, !dbg !1451

for.cond:                                         ; preds = %for.inc40, %if.end
  %16 = load i32* %y, align 4, !dbg !1452
  %cmp = icmp slt i32 %16, 10, !dbg !1452
  %17 = select i1 %cmp, i64 5, i64 6, !dbg !1456
  %18 = getelementptr inbounds [55 x i64]* @__llvm_gcov_ctr43, i64 0, i64 %17, !dbg !1456
  %19 = load i64* %18, !dbg !1456
  %20 = add i64 %19, 1, !dbg !1456
  store i64 %20, i64* %18, !dbg !1456
  br i1 %cmp, label %for.body, label %for.end42, !dbg !1456

for.body:                                         ; preds = %for.cond
  %21 = load i32* %y, align 4, !dbg !1457
  %call5 = call dereferenceable(272) %"class.std::basic_ostream"* @_ZNSolsEi(%"class.std::basic_ostream"* @_ZSt4cout, i32 %21), !dbg !1459
  %call6 = call dereferenceable(272) %"class.std::basic_ostream"* @_ZStlsISt11char_traitsIcEERSt13basic_ostreamIcT_ES5_PKc(%"class.std::basic_ostream"* dereferenceable(272) %call5, i8* getelementptr inbounds ([3 x i8]* @.str4, i32 0, i32 0)), !dbg !1460
  %22 = load i32* %y, align 4, !dbg !1461
  %cmp7 = icmp slt i32 %22, 5, !dbg !1461
  %23 = select i1 %cmp7, i64 7, i64 8, !dbg !1463
  %24 = getelementptr inbounds [55 x i64]* @__llvm_gcov_ctr43, i64 0, i64 %23, !dbg !1463
  %25 = load i64* %24, !dbg !1463
  %26 = add i64 %25, 1, !dbg !1463
  store i64 %26, i64* %24, !dbg !1463
  br i1 %cmp7, label %if.then8, label %if.end13, !dbg !1463

if.then8:                                         ; preds = %for.body
  %27 = load i64* getelementptr inbounds ([55 x i64]* @__llvm_gcov_ctr43, i64 0, i64 9), !dbg !1464
  %28 = add i64 %27, 1, !dbg !1464
  store i64 %28, i64* getelementptr inbounds ([55 x i64]* @__llvm_gcov_ctr43, i64 0, i64 9), !dbg !1464
  call void @llvm.dbg.declare(metadata i32* %off, metadata !1467, metadata !605), !dbg !1464
  store i32 0, i32* %off, align 4, !dbg !1464
  br label %for.cond9, !dbg !1468

for.cond9:                                        ; preds = %for.inc, %if.then8
  %29 = load i32* %off, align 4, !dbg !1469
  %30 = load i32* %y, align 4, !dbg !1473
  %sub = sub nsw i32 5, %30, !dbg !1474
  %cmp10 = icmp slt i32 %29, %sub, !dbg !1475
  %31 = select i1 %cmp10, i64 10, i64 11, !dbg !1476
  %32 = getelementptr inbounds [55 x i64]* @__llvm_gcov_ctr43, i64 0, i64 %31, !dbg !1476
  %33 = load i64* %32, !dbg !1476
  %34 = add i64 %33, 1, !dbg !1476
  store i64 %34, i64* %32, !dbg !1476
  br i1 %cmp10, label %for.body11, label %for.end, !dbg !1476

for.body11:                                       ; preds = %for.cond9
  %35 = load i64* getelementptr inbounds ([55 x i64]* @__llvm_gcov_ctr43, i64 0, i64 12), !dbg !1477
  %36 = add i64 %35, 1, !dbg !1477
  store i64 %36, i64* getelementptr inbounds ([55 x i64]* @__llvm_gcov_ctr43, i64 0, i64 12), !dbg !1477
  %call12 = call dereferenceable(272) %"class.std::basic_ostream"* @_ZStlsISt11char_traitsIcEERSt13basic_ostreamIcT_ES5_PKc(%"class.std::basic_ostream"* dereferenceable(272) @_ZSt4cout, i8* getelementptr inbounds ([2 x i8]* @.str5, i32 0, i32 0)), !dbg !1477
  br label %for.inc, !dbg !1478

for.inc:                                          ; preds = %for.body11
  %37 = load i64* getelementptr inbounds ([55 x i64]* @__llvm_gcov_ctr43, i64 0, i64 13), !dbg !1479
  %38 = add i64 %37, 1, !dbg !1479
  store i64 %38, i64* getelementptr inbounds ([55 x i64]* @__llvm_gcov_ctr43, i64 0, i64 13), !dbg !1479
  %39 = load i32* %off, align 4, !dbg !1479
  %inc = add nsw i32 %39, 1, !dbg !1479
  store i32 %inc, i32* %off, align 4, !dbg !1479
  br label %for.cond9, !dbg !1480

for.end:                                          ; preds = %for.cond9
  %40 = load i64* getelementptr inbounds ([55 x i64]* @__llvm_gcov_ctr43, i64 0, i64 14), !dbg !1481
  %41 = add i64 %40, 1, !dbg !1481
  store i64 %41, i64* getelementptr inbounds ([55 x i64]* @__llvm_gcov_ctr43, i64 0, i64 14), !dbg !1481
  br label %if.end13, !dbg !1481

if.end13:                                         ; preds = %for.end, %for.body
  %42 = load i64* getelementptr inbounds ([55 x i64]* @__llvm_gcov_ctr43, i64 0, i64 15), !dbg !1482
  %43 = add i64 %42, 1, !dbg !1482
  store i64 %43, i64* getelementptr inbounds ([55 x i64]* @__llvm_gcov_ctr43, i64 0, i64 15), !dbg !1482
  call void @llvm.dbg.declare(metadata i32* %x, metadata !1484, metadata !605), !dbg !1482
  store i32 1, i32* %x, align 4, !dbg !1482
  br label %for.cond14, !dbg !1485

for.cond14:                                       ; preds = %for.inc36, %if.end13
  %44 = load i32* %x, align 4, !dbg !1486
  %cmp15 = icmp slt i32 %44, 10, !dbg !1486
  %45 = select i1 %cmp15, i64 16, i64 17, !dbg !1490
  %46 = getelementptr inbounds [55 x i64]* @__llvm_gcov_ctr43, i64 0, i64 %45, !dbg !1490
  %47 = load i64* %46, !dbg !1490
  %48 = add i64 %47, 1, !dbg !1490
  store i64 %48, i64* %46, !dbg !1490
  br i1 %cmp15, label %for.body16, label %for.end38, !dbg !1490

for.body16:                                       ; preds = %for.cond14
  call void @llvm.dbg.declare(metadata i32* %no, metadata !1491, metadata !605), !dbg !1493
  %49 = load i32* %x, align 4, !dbg !1494
  %50 = load i32* %y, align 4, !dbg !1496
  %call17 = call i32 @_Z16getHexxagonIndexii(i32 %49, i32 %50), !dbg !1497
  store i32 %call17, i32* %no, align 4, !dbg !1498
  %cmp18 = icmp eq i32 %call17, -1, !dbg !1499
  %51 = select i1 %cmp18, i64 18, i64 19, !dbg !1500
  %52 = getelementptr inbounds [55 x i64]* @__llvm_gcov_ctr43, i64 0, i64 %51, !dbg !1500
  %53 = load i64* %52, !dbg !1500
  %54 = add i64 %53, 1, !dbg !1500
  store i64 %54, i64* %52, !dbg !1500
  br i1 %cmp18, label %if.then19, label %if.else, !dbg !1500

if.then19:                                        ; preds = %for.body16
  %55 = load i64* getelementptr inbounds ([55 x i64]* @__llvm_gcov_ctr43, i64 0, i64 20), !dbg !1501
  %56 = add i64 %55, 1, !dbg !1501
  store i64 %56, i64* getelementptr inbounds ([55 x i64]* @__llvm_gcov_ctr43, i64 0, i64 20), !dbg !1501
  %call20 = call dereferenceable(272) %"class.std::basic_ostream"* @_ZStlsISt11char_traitsIcEERSt13basic_ostreamIcT_ES5_PKc(%"class.std::basic_ostream"* dereferenceable(272) @_ZSt4cout, i8* getelementptr inbounds ([2 x i8]* @.str5, i32 0, i32 0)), !dbg !1501
  br label %if.end35, !dbg !1502

if.else:                                          ; preds = %for.body16
  %board = getelementptr inbounds %class.HexxagonBoard* %this1, i32 0, i32 0, !dbg !1503
  %57 = load i32* %no, align 4, !dbg !1506
  %call21 = call i32 @_ZN10BitBoard646getBitEi(%class.BitBoard64* %board, i32 %57), !dbg !1503
  %tobool22 = icmp ne i32 %call21, 0, !dbg !1503
  %58 = select i1 %tobool22, i64 21, i64 22, !dbg !1507
  %59 = getelementptr inbounds [55 x i64]* @__llvm_gcov_ctr43, i64 0, i64 %58, !dbg !1507
  %60 = load i64* %59, !dbg !1507
  %61 = add i64 %60, 1, !dbg !1507
  store i64 %61, i64* %59, !dbg !1507
  br i1 %tobool22, label %if.then23, label %if.else32, !dbg !1507

if.then23:                                        ; preds = %if.else
  %62 = load i32* %x, align 4, !dbg !1508
  %63 = load i32* %y, align 4, !dbg !1511
  %call24 = call i32 @_Z16getHexxagonIndexii(i32 %62, i32 %63), !dbg !1512
  %call25 = call i32 @_ZN10BitBoard646getBitEi(%class.BitBoard64* %c, i32 %call24), !dbg !1513
  %tobool26 = icmp ne i32 %call25, 0, !dbg !1513
  %64 = select i1 %tobool26, i64 23, i64 24, !dbg !1514
  %65 = getelementptr inbounds [55 x i64]* @__llvm_gcov_ctr43, i64 0, i64 %64, !dbg !1514
  %66 = load i64* %65, !dbg !1514
  %67 = add i64 %66, 1, !dbg !1514
  store i64 %67, i64* %65, !dbg !1514
  br i1 %tobool26, label %if.then27, label %if.else29, !dbg !1514

if.then27:                                        ; preds = %if.then23
  %68 = load i64* getelementptr inbounds ([55 x i64]* @__llvm_gcov_ctr43, i64 0, i64 25), !dbg !1515
  %69 = add i64 %68, 1, !dbg !1515
  store i64 %69, i64* getelementptr inbounds ([55 x i64]* @__llvm_gcov_ctr43, i64 0, i64 25), !dbg !1515
  %call28 = call dereferenceable(272) %"class.std::basic_ostream"* @_ZStlsISt11char_traitsIcEERSt13basic_ostreamIcT_ES5_PKc(%"class.std::basic_ostream"* dereferenceable(272) @_ZSt4cout, i8* getelementptr inbounds ([3 x i8]* @.str6, i32 0, i32 0)), !dbg !1515
  br label %if.end31, !dbg !1516

if.else29:                                        ; preds = %if.then23
  %70 = load i64* getelementptr inbounds ([55 x i64]* @__llvm_gcov_ctr43, i64 0, i64 26), !dbg !1517
  %71 = add i64 %70, 1, !dbg !1517
  store i64 %71, i64* getelementptr inbounds ([55 x i64]* @__llvm_gcov_ctr43, i64 0, i64 26), !dbg !1517
  %call30 = call dereferenceable(272) %"class.std::basic_ostream"* @_ZStlsISt11char_traitsIcEERSt13basic_ostreamIcT_ES5_PKc(%"class.std::basic_ostream"* dereferenceable(272) @_ZSt4cout, i8* getelementptr inbounds ([3 x i8]* @.str7, i32 0, i32 0)), !dbg !1517
  br label %if.end31

if.end31:                                         ; preds = %if.else29, %if.then27
  %72 = load i64* getelementptr inbounds ([55 x i64]* @__llvm_gcov_ctr43, i64 0, i64 27), !dbg !1518
  %73 = add i64 %72, 1, !dbg !1518
  store i64 %73, i64* getelementptr inbounds ([55 x i64]* @__llvm_gcov_ctr43, i64 0, i64 27), !dbg !1518
  br label %if.end34, !dbg !1518

if.else32:                                        ; preds = %if.else
  %74 = load i64* getelementptr inbounds ([55 x i64]* @__llvm_gcov_ctr43, i64 0, i64 28), !dbg !1519
  %75 = add i64 %74, 1, !dbg !1519
  store i64 %75, i64* getelementptr inbounds ([55 x i64]* @__llvm_gcov_ctr43, i64 0, i64 28), !dbg !1519
  %call33 = call dereferenceable(272) %"class.std::basic_ostream"* @_ZStlsISt11char_traitsIcEERSt13basic_ostreamIcT_ES5_PKc(%"class.std::basic_ostream"* dereferenceable(272) @_ZSt4cout, i8* getelementptr inbounds ([3 x i8]* @.str8, i32 0, i32 0)), !dbg !1519
  br label %if.end34

if.end34:                                         ; preds = %if.else32, %if.end31
  %76 = load i64* getelementptr inbounds ([55 x i64]* @__llvm_gcov_ctr43, i64 0, i64 29)
  %77 = add i64 %76, 1
  store i64 %77, i64* getelementptr inbounds ([55 x i64]* @__llvm_gcov_ctr43, i64 0, i64 29)
  br label %if.end35

if.end35:                                         ; preds = %if.end34, %if.then19
  %78 = load i64* getelementptr inbounds ([55 x i64]* @__llvm_gcov_ctr43, i64 0, i64 30), !dbg !1520
  %79 = add i64 %78, 1, !dbg !1520
  store i64 %79, i64* getelementptr inbounds ([55 x i64]* @__llvm_gcov_ctr43, i64 0, i64 30), !dbg !1520
  br label %for.inc36, !dbg !1520

for.inc36:                                        ; preds = %if.end35
  %80 = load i64* getelementptr inbounds ([55 x i64]* @__llvm_gcov_ctr43, i64 0, i64 31), !dbg !1521
  %81 = add i64 %80, 1, !dbg !1521
  store i64 %81, i64* getelementptr inbounds ([55 x i64]* @__llvm_gcov_ctr43, i64 0, i64 31), !dbg !1521
  %82 = load i32* %x, align 4, !dbg !1521
  %inc37 = add nsw i32 %82, 1, !dbg !1521
  store i32 %inc37, i32* %x, align 4, !dbg !1521
  br label %for.cond14, !dbg !1522

for.end38:                                        ; preds = %for.cond14
  %83 = load i64* getelementptr inbounds ([55 x i64]* @__llvm_gcov_ctr43, i64 0, i64 32), !dbg !1523
  %84 = add i64 %83, 1, !dbg !1523
  store i64 %84, i64* getelementptr inbounds ([55 x i64]* @__llvm_gcov_ctr43, i64 0, i64 32), !dbg !1523
  %call39 = call dereferenceable(272) %"class.std::basic_ostream"* @_ZStlsISt11char_traitsIcEERSt13basic_ostreamIcT_ES5_PKc(%"class.std::basic_ostream"* dereferenceable(272) @_ZSt4cout, i8* getelementptr inbounds ([2 x i8]* @.str9, i32 0, i32 0)), !dbg !1523
  br label %for.inc40, !dbg !1524

for.inc40:                                        ; preds = %for.end38
  %85 = load i64* getelementptr inbounds ([55 x i64]* @__llvm_gcov_ctr43, i64 0, i64 33), !dbg !1525
  %86 = add i64 %85, 1, !dbg !1525
  store i64 %86, i64* getelementptr inbounds ([55 x i64]* @__llvm_gcov_ctr43, i64 0, i64 33), !dbg !1525
  %87 = load i32* %y, align 4, !dbg !1525
  %inc41 = add nsw i32 %87, 1, !dbg !1525
  store i32 %inc41, i32* %y, align 4, !dbg !1525
  br label %for.cond, !dbg !1526

for.end42:                                        ; preds = %for.cond
  call void @llvm.dbg.declare(metadata i32* %empty, metadata !1527, metadata !605), !dbg !1528
  %88 = load i32* %turn.addr, align 4, !dbg !1529
  %tobool43 = icmp ne i32 %88, 0, !dbg !1529
  %89 = select i1 %tobool43, i64 34, i64 35, !dbg !1529
  %90 = getelementptr inbounds [55 x i64]* @__llvm_gcov_ctr43, i64 0, i64 %89, !dbg !1529
  %91 = load i64* %90, !dbg !1529
  %92 = add i64 %91, 1, !dbg !1529
  store i64 %92, i64* %90, !dbg !1529
  br i1 %tobool43, label %cond.true, label %cond.false, !dbg !1529

cond.true:                                        ; preds = %for.end42
  %93 = load i64* getelementptr inbounds ([55 x i64]* @__llvm_gcov_ctr43, i64 0, i64 36), !dbg !1530
  %94 = add i64 %93, 1, !dbg !1530
  store i64 %94, i64* getelementptr inbounds ([55 x i64]* @__llvm_gcov_ctr43, i64 0, i64 36), !dbg !1530
  %call44 = call i32 @_ZN13HexxagonBoard11countBricksEi(%class.HexxagonBoard* %this1, i32 1), !dbg !1530
  br label %cond.end, !dbg !1529

cond.false:                                       ; preds = %for.end42
  %95 = load i64* getelementptr inbounds ([55 x i64]* @__llvm_gcov_ctr43, i64 0, i64 37), !dbg !1532
  %96 = add i64 %95, 1, !dbg !1532
  store i64 %96, i64* getelementptr inbounds ([55 x i64]* @__llvm_gcov_ctr43, i64 0, i64 37), !dbg !1532
  %call45 = call i32 @_ZN13HexxagonBoard11countBricksEi(%class.HexxagonBoard* %this1, i32 2), !dbg !1532
  br label %cond.end, !dbg !1529

cond.end:                                         ; preds = %cond.false, %cond.true
  %cond = phi i32 [ %call44, %cond.true ], [ %call45, %cond.false ], !dbg !1529
  %97 = load i32* %turn.addr, align 4, !dbg !1534
  %tobool46 = icmp ne i32 %97, 0, !dbg !1534
  %98 = select i1 %tobool46, i64 38, i64 39, !dbg !1534
  %99 = getelementptr inbounds [55 x i64]* @__llvm_gcov_ctr43, i64 0, i64 %98, !dbg !1534
  %100 = load i64* %99, !dbg !1534
  %101 = add i64 %100, 1, !dbg !1534
  store i64 %101, i64* %99, !dbg !1534
  br i1 %tobool46, label %cond.true47, label %cond.false49, !dbg !1534

cond.true47:                                      ; preds = %cond.end
  %102 = load i64* getelementptr inbounds ([55 x i64]* @__llvm_gcov_ctr43, i64 0, i64 40), !dbg !1535
  %103 = add i64 %102, 1, !dbg !1535
  store i64 %103, i64* getelementptr inbounds ([55 x i64]* @__llvm_gcov_ctr43, i64 0, i64 40), !dbg !1535
  %call48 = call i32 @_ZN13HexxagonBoard11countBricksEi(%class.HexxagonBoard* %this1, i32 2), !dbg !1535
  br label %cond.end51, !dbg !1534

cond.false49:                                     ; preds = %cond.end
  %104 = load i64* getelementptr inbounds ([55 x i64]* @__llvm_gcov_ctr43, i64 0, i64 41), !dbg !1536
  %105 = add i64 %104, 1, !dbg !1536
  store i64 %105, i64* getelementptr inbounds ([55 x i64]* @__llvm_gcov_ctr43, i64 0, i64 41), !dbg !1536
  %call50 = call i32 @_ZN13HexxagonBoard11countBricksEi(%class.HexxagonBoard* %this1, i32 1), !dbg !1536
  br label %cond.end51, !dbg !1534

cond.end51:                                       ; preds = %cond.false49, %cond.true47
  %cond52 = phi i32 [ %call48, %cond.true47 ], [ %call50, %cond.false49 ], !dbg !1534
  %add = add nsw i32 %cond, %cond52, !dbg !1537
  %sub53 = sub nsw i32 61, %add, !dbg !1538
  store i32 %sub53, i32* %empty, align 4, !dbg !1528
  %call54 = call dereferenceable(272) %"class.std::basic_ostream"* @_ZStlsISt11char_traitsIcEERSt13basic_ostreamIcT_ES5_PKc(%"class.std::basic_ostream"* dereferenceable(272) @_ZSt4cout, i8* getelementptr inbounds ([12 x i8]* @.str10, i32 0, i32 0)), !dbg !1539
  %106 = load i32* %turn.addr, align 4, !dbg !1540
  %tobool55 = icmp ne i32 %106, 0, !dbg !1540
  %107 = select i1 %tobool55, i64 42, i64 43, !dbg !1540
  %108 = getelementptr inbounds [55 x i64]* @__llvm_gcov_ctr43, i64 0, i64 %107, !dbg !1540
  %109 = load i64* %108, !dbg !1540
  %110 = add i64 %109, 1, !dbg !1540
  store i64 %110, i64* %108, !dbg !1540
  br i1 %tobool55, label %cond.true56, label %cond.false58, !dbg !1540

cond.true56:                                      ; preds = %cond.end51
  %111 = load i64* getelementptr inbounds ([55 x i64]* @__llvm_gcov_ctr43, i64 0, i64 44), !dbg !1541
  %112 = add i64 %111, 1, !dbg !1541
  store i64 %112, i64* getelementptr inbounds ([55 x i64]* @__llvm_gcov_ctr43, i64 0, i64 44), !dbg !1541
  %call57 = call i32 @_ZN13HexxagonBoard11countBricksEi(%class.HexxagonBoard* %this1, i32 1), !dbg !1541
  br label %cond.end60, !dbg !1540

cond.false58:                                     ; preds = %cond.end51
  %113 = load i64* getelementptr inbounds ([55 x i64]* @__llvm_gcov_ctr43, i64 0, i64 45), !dbg !1542
  %114 = add i64 %113, 1, !dbg !1542
  store i64 %114, i64* getelementptr inbounds ([55 x i64]* @__llvm_gcov_ctr43, i64 0, i64 45), !dbg !1542
  %call59 = call i32 @_ZN13HexxagonBoard11countBricksEi(%class.HexxagonBoard* %this1, i32 2), !dbg !1542
  br label %cond.end60, !dbg !1540

cond.end60:                                       ; preds = %cond.false58, %cond.true56
  %cond61 = phi i32 [ %call57, %cond.true56 ], [ %call59, %cond.false58 ], !dbg !1540
  %call62 = call dereferenceable(272) %"class.std::basic_ostream"* @_ZNSolsEi(%"class.std::basic_ostream"* %call54, i32 %cond61), !dbg !1543
  %call63 = call dereferenceable(272) %"class.std::basic_ostream"* @_ZStlsISt11char_traitsIcEERSt13basic_ostreamIcT_ES5_PKc(%"class.std::basic_ostream"* dereferenceable(272) @_ZSt4cout, i8* getelementptr inbounds ([5 x i8]* @.str11, i32 0, i32 0)), !dbg !1546
  %115 = load i32* %turn.addr, align 4, !dbg !1547
  %tobool64 = icmp ne i32 %115, 0, !dbg !1547
  %116 = select i1 %tobool64, i64 46, i64 47, !dbg !1547
  %117 = getelementptr inbounds [55 x i64]* @__llvm_gcov_ctr43, i64 0, i64 %116, !dbg !1547
  %118 = load i64* %117, !dbg !1547
  %119 = add i64 %118, 1, !dbg !1547
  store i64 %119, i64* %117, !dbg !1547
  br i1 %tobool64, label %cond.true65, label %cond.false67, !dbg !1547

cond.true65:                                      ; preds = %cond.end60
  %120 = load i64* getelementptr inbounds ([55 x i64]* @__llvm_gcov_ctr43, i64 0, i64 48), !dbg !1548
  %121 = add i64 %120, 1, !dbg !1548
  store i64 %121, i64* getelementptr inbounds ([55 x i64]* @__llvm_gcov_ctr43, i64 0, i64 48), !dbg !1548
  %call66 = call i32 @_ZN13HexxagonBoard11countBricksEi(%class.HexxagonBoard* %this1, i32 2), !dbg !1548
  br label %cond.end69, !dbg !1547

cond.false67:                                     ; preds = %cond.end60
  %122 = load i64* getelementptr inbounds ([55 x i64]* @__llvm_gcov_ctr43, i64 0, i64 49), !dbg !1549
  %123 = add i64 %122, 1, !dbg !1549
  store i64 %123, i64* getelementptr inbounds ([55 x i64]* @__llvm_gcov_ctr43, i64 0, i64 49), !dbg !1549
  %call68 = call i32 @_ZN13HexxagonBoard11countBricksEi(%class.HexxagonBoard* %this1, i32 1), !dbg !1549
  br label %cond.end69, !dbg !1547

cond.end69:                                       ; preds = %cond.false67, %cond.true65
  %cond70 = phi i32 [ %call66, %cond.true65 ], [ %call68, %cond.false67 ], !dbg !1547
  %call71 = call dereferenceable(272) %"class.std::basic_ostream"* @_ZNSolsEi(%"class.std::basic_ostream"* %call63, i32 %cond70), !dbg !1550
  %call72 = call dereferenceable(272) %"class.std::basic_ostream"* @_ZStlsISt11char_traitsIcEERSt13basic_ostreamIcT_ES5_PKc(%"class.std::basic_ostream"* dereferenceable(272) @_ZSt4cout, i8* getelementptr inbounds ([9 x i8]* @.str12, i32 0, i32 0)), !dbg !1551
  %124 = load i32* %empty, align 4, !dbg !1552
  %call73 = call dereferenceable(272) %"class.std::basic_ostream"* @_ZNSolsEi(%"class.std::basic_ostream"* %call72, i32 %124), !dbg !1551
  %call74 = call dereferenceable(272) %"class.std::basic_ostream"* @_ZStlsISt11char_traitsIcEERSt13basic_ostreamIcT_ES5_PKc(%"class.std::basic_ostream"* dereferenceable(272) %call73, i8* getelementptr inbounds ([3 x i8]* @.str13, i32 0, i32 0)), !dbg !1553
  %call75 = call dereferenceable(272) %"class.std::basic_ostream"* @_ZStlsISt11char_traitsIcEERSt13basic_ostreamIcT_ES5_PKc(%"class.std::basic_ostream"* dereferenceable(272) @_ZSt4cout, i8* getelementptr inbounds ([15 x i8]* @.str14, i32 0, i32 0)), !dbg !1554
  %125 = load i32* %turn.addr, align 4, !dbg !1555
  %tobool76 = icmp ne i32 %125, 0, !dbg !1555
  %126 = select i1 %tobool76, i64 50, i64 51, !dbg !1556
  %127 = getelementptr inbounds [55 x i64]* @__llvm_gcov_ctr43, i64 0, i64 %126, !dbg !1556
  %128 = load i64* %127, !dbg !1556
  %129 = add i64 %128, 1, !dbg !1556
  store i64 %129, i64* %127, !dbg !1556
  br i1 %tobool76, label %cond.true77, label %cond.false78, !dbg !1556

cond.true77:                                      ; preds = %cond.end69
  %130 = load i64* getelementptr inbounds ([55 x i64]* @__llvm_gcov_ctr43, i64 0, i64 52), !dbg !1557
  %131 = add i64 %130, 1, !dbg !1557
  store i64 %131, i64* getelementptr inbounds ([55 x i64]* @__llvm_gcov_ctr43, i64 0, i64 52), !dbg !1557
  br label %cond.end79, !dbg !1557

cond.false78:                                     ; preds = %cond.end69
  %132 = load i64* getelementptr inbounds ([55 x i64]* @__llvm_gcov_ctr43, i64 0, i64 53), !dbg !1558
  %133 = add i64 %132, 1, !dbg !1558
  store i64 %133, i64* getelementptr inbounds ([55 x i64]* @__llvm_gcov_ctr43, i64 0, i64 53), !dbg !1558
  br label %cond.end79, !dbg !1558

cond.end79:                                       ; preds = %cond.false78, %cond.true77
  %cond-lvalue = phi [2 x i8]* [ @.str15, %cond.true77 ], [ @.str16, %cond.false78 ], !dbg !1556
  %134 = load i64* getelementptr inbounds ([55 x i64]* @__llvm_gcov_ctr43, i64 0, i64 54), !dbg !1559
  %135 = add i64 %134, 1, !dbg !1559
  store i64 %135, i64* getelementptr inbounds ([55 x i64]* @__llvm_gcov_ctr43, i64 0, i64 54), !dbg !1559
  %arraydecay = getelementptr inbounds [2 x i8]* %cond-lvalue, i32 0, i32 0, !dbg !1559
  %call80 = call dereferenceable(272) %"class.std::basic_ostream"* @_ZStlsISt11char_traitsIcEERSt13basic_ostreamIcT_ES5_PKc(%"class.std::basic_ostream"* dereferenceable(272) %call75, i8* %arraydecay), !dbg !1560
  %call81 = call i32 @_ZN13HexxagonBoard9endOfGameEv(%class.HexxagonBoard* %this1), !dbg !1561
  %tobool82 = icmp ne i32 %call81, 0, !dbg !1561
  %cond83 = select i1 %tobool82, i8* getelementptr inbounds ([13 x i8]* @.str17, i32 0, i32 0), i8* getelementptr inbounds ([1 x i8]* @.str18, i32 0, i32 0), !dbg !1561
  %call84 = call dereferenceable(272) %"class.std::basic_ostream"* @_ZStlsISt11char_traitsIcEERSt13basic_ostreamIcT_ES5_PKc(%"class.std::basic_ostream"* dereferenceable(272) @_ZSt4cout, i8* %cond83), !dbg !1562
  %call85 = call dereferenceable(272) %"class.std::basic_ostream"* @_ZStlsISt11char_traitsIcEERSt13basic_ostreamIcT_ES5_PKc(%"class.std::basic_ostream"* dereferenceable(272) %call84, i8* getelementptr inbounds ([2 x i8]* @.str9, i32 0, i32 0)), !dbg !1563
  ret void, !dbg !1564
}

; Function Attrs: nounwind
declare void @llvm.memcpy.p0i8.p0i8.i64(i8* nocapture, i8* nocapture readonly, i64, i32, i1) #1

declare dereferenceable(272) %"class.std::basic_ostream"* @_ZStlsISt11char_traitsIcEERSt13basic_ostreamIcT_ES5_PKc(%"class.std::basic_ostream"* dereferenceable(272), i8*) #0

declare dereferenceable(272) %"class.std::basic_ostream"* @_ZNSolsEi(%"class.std::basic_ostream"*, i32) #0

; Function Attrs: nounwind uwtable
define linkonce_odr void @_ZN12HexxagonMoveC2Ev(%class.HexxagonMove* %this) unnamed_addr #2 align 2 {
entry:
  %0 = load i64* getelementptr inbounds ([2 x i64]* @__llvm_gcov_ctr50, i64 0, i64 0)
  %1 = add i64 %0, 1
  store i64 %1, i64* getelementptr inbounds ([2 x i64]* @__llvm_gcov_ctr50, i64 0, i64 0)
  %this.addr = alloca %class.HexxagonMove*, align 8
  br label %2

; <label>:2                                       ; preds = %entry
  %3 = load i64* getelementptr inbounds ([2 x i64]* @__llvm_gcov_ctr50, i64 0, i64 1)
  %4 = add i64 %3, 1
  store i64 %4, i64* getelementptr inbounds ([2 x i64]* @__llvm_gcov_ctr50, i64 0, i64 1)
  store %class.HexxagonMove* %this, %class.HexxagonMove** %this.addr, align 8
  call void @llvm.dbg.declare(metadata %class.HexxagonMove** %this.addr, metadata !1565, metadata !605), !dbg !1566
  %this1 = load %class.HexxagonMove** %this.addr
  ret void, !dbg !1567
}

define internal void @_GLOBAL__sub_I_hexxagonboard.cpp() section ".text.startup" {
entry:
  call void @__cxx_global_var_init(), !dbg !1568
  ret void
}

; Function Attrs: noinline
define internal void @__llvm_gcov_indirect_counter_increment(i32* %predecessor, i64** %counters) unnamed_addr #8 {
entry:
  %pred = load i32* %predecessor
  %0 = icmp eq i32 %pred, -1
  br i1 %0, label %exit, label %1

; <label>:1                                       ; preds = %entry
  %2 = zext i32 %pred to i64
  %3 = getelementptr i64** %counters, i64 %2
  %counter = load i64** %3
  %4 = icmp eq i64* %counter, null
  br i1 %4, label %exit, label %5

; <label>:5                                       ; preds = %1
  %6 = load i64* %counter
  %7 = add i64 %6, 1
  store i64 %7, i64* %counter
  br label %exit

exit:                                             ; preds = %5, %1, %entry
  ret void
}

; Function Attrs: noinline
define internal void @__llvm_gcov_writeout() unnamed_addr #8 {
entry:
  call void @llvm_gcda_start_file(i8* getelementptr inbounds ([95 x i8]* @1, i32 0, i32 0), i8* getelementptr inbounds ([5 x i8]* @0, i32 0, i32 0), i32 -1608943684)
  call void @llvm_gcda_emit_function(i32 0, i8* getelementptr inbounds ([22 x i8]* @2, i32 0, i32 0), i32 -343593632, i8 0, i32 -1608943684)
  call void @llvm_gcda_emit_arcs(i32 2, i64* getelementptr inbounds ([2 x i64]* @__llvm_gcov_ctr, i64 0, i64 0))
  call void @llvm_gcda_emit_function(i32 1, i8* getelementptr inbounds ([23 x i8]* @3, i32 0, i32 0), i32 -269134694, i8 0, i32 -1608943684)
  call void @llvm_gcda_emit_arcs(i32 48, i64* getelementptr inbounds ([48 x i64]* @__llvm_gcov_ctr19, i64 0, i64 0))
  call void @llvm_gcda_emit_function(i32 2, i8* getelementptr inbounds ([22 x i8]* @4, i32 0, i32 0), i32 1905514388, i8 0, i32 -1608943684)
  call void @llvm_gcda_emit_arcs(i32 47, i64* getelementptr inbounds ([47 x i64]* @__llvm_gcov_ctr20, i64 0, i64 0))
  call void @llvm_gcda_emit_function(i32 3, i8* getelementptr inbounds ([21 x i8]* @5, i32 0, i32 0), i32 112478219, i8 0, i32 -1608943684)
  call void @llvm_gcda_emit_arcs(i32 47, i64* getelementptr inbounds ([47 x i64]* @__llvm_gcov_ctr21, i64 0, i64 0))
  call void @llvm_gcda_emit_function(i32 4, i8* getelementptr inbounds ([26 x i8]* @6, i32 0, i32 0), i32 -238785127, i8 0, i32 -1608943684)
  call void @llvm_gcda_emit_arcs(i32 2, i64* getelementptr inbounds ([2 x i64]* @__llvm_gcov_ctr24, i64 0, i64 0))
  call void @llvm_gcda_emit_function(i32 5, i8* getelementptr inbounds ([26 x i8]* @7, i32 0, i32 0), i32 1869641593, i8 0, i32 -1608943684)
  call void @llvm_gcda_emit_arcs(i32 2, i64* getelementptr inbounds ([2 x i64]* @__llvm_gcov_ctr25, i64 0, i64 0))
  call void @llvm_gcda_emit_function(i32 6, i8* getelementptr inbounds ([26 x i8]* @8, i32 0, i32 0), i32 637088386, i8 0, i32 -1608943684)
  call void @llvm_gcda_emit_arcs(i32 2, i64* getelementptr inbounds ([2 x i64]* @__llvm_gcov_ctr26, i64 0, i64 0))
  call void @llvm_gcda_emit_function(i32 7, i8* getelementptr inbounds ([34 x i8]* @9, i32 0, i32 0), i32 -599594944, i8 0, i32 -1608943684)
  call void @llvm_gcda_emit_arcs(i32 26, i64* getelementptr inbounds ([26 x i64]* @__llvm_gcov_ctr27, i64 0, i64 0))
  call void @llvm_gcda_emit_function(i32 8, i8* getelementptr inbounds ([30 x i8]* @10, i32 0, i32 0), i32 -1597830961, i8 0, i32 -1608943684)
  call void @llvm_gcda_emit_arcs(i32 36, i64* getelementptr inbounds ([36 x i64]* @__llvm_gcov_ctr28, i64 0, i64 0))
  call void @llvm_gcda_emit_function(i32 9, i8* getelementptr inbounds ([34 x i8]* @11, i32 0, i32 0), i32 1745465004, i8 0, i32 -1608943684)
  call void @llvm_gcda_emit_arcs(i32 9, i64* getelementptr inbounds ([9 x i64]* @__llvm_gcov_ctr29, i64 0, i64 0))
  call void @llvm_gcda_emit_function(i32 10, i8* getelementptr inbounds ([45 x i8]* @12, i32 0, i32 0), i32 -802179790, i8 0, i32 -1608943684)
  call void @llvm_gcda_emit_arcs(i32 5, i64* getelementptr inbounds ([5 x i64]* @__llvm_gcov_ctr30, i64 0, i64 0))
  call void @llvm_gcda_emit_function(i32 11, i8* getelementptr inbounds ([48 x i8]* @13, i32 0, i32 0), i32 1221338279, i8 0, i32 -1608943684)
  call void @llvm_gcda_emit_arcs(i32 16, i64* getelementptr inbounds ([16 x i64]* @__llvm_gcov_ctr31, i64 0, i64 0))
  call void @llvm_gcda_emit_function(i32 12, i8* getelementptr inbounds ([39 x i8]* @14, i32 0, i32 0), i32 467403136, i8 0, i32 -1608943684)
  call void @llvm_gcda_emit_arcs(i32 39, i64* getelementptr inbounds ([39 x i64]* @__llvm_gcov_ctr32, i64 0, i64 0))
  call void @llvm_gcda_emit_function(i32 13, i8* getelementptr inbounds ([31 x i8]* @15, i32 0, i32 0), i32 -1070908754, i8 0, i32 -1608943684)
  call void @llvm_gcda_emit_arcs(i32 12, i64* getelementptr inbounds ([12 x i64]* @__llvm_gcov_ctr35, i64 0, i64 0))
  call void @llvm_gcda_emit_function(i32 14, i8* getelementptr inbounds ([41 x i8]* @16, i32 0, i32 0), i32 325177375, i8 0, i32 -1608943684)
  call void @llvm_gcda_emit_arcs(i32 12, i64* getelementptr inbounds ([12 x i64]* @__llvm_gcov_ctr38, i64 0, i64 0))
  call void @llvm_gcda_emit_function(i32 15, i8* getelementptr inbounds ([44 x i8]* @17, i32 0, i32 0), i32 645164791, i8 0, i32 -1608943684)
  call void @llvm_gcda_emit_arcs(i32 8, i64* getelementptr inbounds ([8 x i64]* @__llvm_gcov_ctr41, i64 0, i64 0))
  call void @llvm_gcda_emit_function(i32 16, i8* getelementptr inbounds ([43 x i8]* @18, i32 0, i32 0), i32 -916865448, i8 0, i32 -1608943684)
  call void @llvm_gcda_emit_arcs(i32 8, i64* getelementptr inbounds ([8 x i64]* @__llvm_gcov_ctr42, i64 0, i64 0))
  call void @llvm_gcda_emit_function(i32 17, i8* getelementptr inbounds ([39 x i8]* @19, i32 0, i32 0), i32 111566612, i8 0, i32 -1608943684)
  call void @llvm_gcda_emit_arcs(i32 55, i64* getelementptr inbounds ([55 x i64]* @__llvm_gcov_ctr43, i64 0, i64 0))
  call void @llvm_gcda_emit_function(i32 18, i8* getelementptr inbounds ([26 x i8]* @20, i32 0, i32 0), i32 1494599864, i8 0, i32 -1608943684)
  call void @llvm_gcda_emit_arcs(i32 5, i64* getelementptr inbounds ([5 x i64]* @__llvm_gcov_ctr44, i64 0, i64 0))
  call void @llvm_gcda_emit_function(i32 19, i8* getelementptr inbounds ([23 x i8]* @21, i32 0, i32 0), i32 -242329079, i8 0, i32 -1608943684)
  call void @llvm_gcda_emit_arcs(i32 2, i64* getelementptr inbounds ([2 x i64]* @__llvm_gcov_ctr45, i64 0, i64 0))
  call void @llvm_gcda_emit_function(i32 20, i8* getelementptr inbounds ([22 x i8]* @22, i32 0, i32 0), i32 -932945543, i8 0, i32 -1608943684)
  call void @llvm_gcda_emit_arcs(i32 2, i64* getelementptr inbounds ([2 x i64]* @__llvm_gcov_ctr46, i64 0, i64 0))
  call void @llvm_gcda_emit_function(i32 21, i8* getelementptr inbounds ([26 x i8]* @23, i32 0, i32 0), i32 467595693, i8 0, i32 -1608943684)
  call void @llvm_gcda_emit_arcs(i32 8, i64* getelementptr inbounds ([8 x i64]* @__llvm_gcov_ctr47, i64 0, i64 0))
  call void @llvm_gcda_emit_function(i32 22, i8* getelementptr inbounds ([22 x i8]* @24, i32 0, i32 0), i32 -269156019, i8 0, i32 -1608943684)
  call void @llvm_gcda_emit_arcs(i32 2, i64* getelementptr inbounds ([2 x i64]* @__llvm_gcov_ctr50, i64 0, i64 0))
  call void @llvm_gcda_emit_function(i32 23, i8* getelementptr inbounds ([21 x i8]* @25, i32 0, i32 0), i32 757312497, i8 0, i32 -1608943684)
  call void @llvm_gcda_emit_arcs(i32 2, i64* getelementptr inbounds ([2 x i64]* @__llvm_gcov_ctr51, i64 0, i64 0))
  call void @llvm_gcda_emit_function(i32 24, i8* getelementptr inbounds ([20 x i8]* @26, i32 0, i32 0), i32 -196194665, i8 0, i32 -1608943684)
  call void @llvm_gcda_emit_arcs(i32 2, i64* getelementptr inbounds ([2 x i64]* @__llvm_gcov_ctr52, i64 0, i64 0))
  call void @llvm_gcda_summary_info()
  call void @llvm_gcda_end_file()
  ret void
}

declare void @llvm_gcda_start_file(i8*, i8*, i32)

declare void @llvm_gcda_emit_function(i32, i8*, i32, i8, i32)

declare void @llvm_gcda_emit_arcs(i32, i64*)

declare void @llvm_gcda_summary_info()

declare void @llvm_gcda_end_file()

; Function Attrs: noinline
define internal void @__llvm_gcov_flush() unnamed_addr #8 {
entry:
  call void @__llvm_gcov_writeout()
  store [2 x i64] zeroinitializer, [2 x i64]* @__llvm_gcov_ctr
  store [48 x i64] zeroinitializer, [48 x i64]* @__llvm_gcov_ctr19
  store [47 x i64] zeroinitializer, [47 x i64]* @__llvm_gcov_ctr20
  store [47 x i64] zeroinitializer, [47 x i64]* @__llvm_gcov_ctr21
  store [2 x i64] zeroinitializer, [2 x i64]* @__llvm_gcov_ctr24
  store [2 x i64] zeroinitializer, [2 x i64]* @__llvm_gcov_ctr25
  store [2 x i64] zeroinitializer, [2 x i64]* @__llvm_gcov_ctr26
  store [26 x i64] zeroinitializer, [26 x i64]* @__llvm_gcov_ctr27
  store [36 x i64] zeroinitializer, [36 x i64]* @__llvm_gcov_ctr28
  store [9 x i64] zeroinitializer, [9 x i64]* @__llvm_gcov_ctr29
  store [5 x i64] zeroinitializer, [5 x i64]* @__llvm_gcov_ctr30
  store [16 x i64] zeroinitializer, [16 x i64]* @__llvm_gcov_ctr31
  store [39 x i64] zeroinitializer, [39 x i64]* @__llvm_gcov_ctr32
  store [12 x i64] zeroinitializer, [12 x i64]* @__llvm_gcov_ctr35
  store [12 x i64] zeroinitializer, [12 x i64]* @__llvm_gcov_ctr38
  store [8 x i64] zeroinitializer, [8 x i64]* @__llvm_gcov_ctr41
  store [8 x i64] zeroinitializer, [8 x i64]* @__llvm_gcov_ctr42
  store [55 x i64] zeroinitializer, [55 x i64]* @__llvm_gcov_ctr43
  store [5 x i64] zeroinitializer, [5 x i64]* @__llvm_gcov_ctr44
  store [2 x i64] zeroinitializer, [2 x i64]* @__llvm_gcov_ctr45
  store [2 x i64] zeroinitializer, [2 x i64]* @__llvm_gcov_ctr46
  store [8 x i64] zeroinitializer, [8 x i64]* @__llvm_gcov_ctr47
  store [2 x i64] zeroinitializer, [2 x i64]* @__llvm_gcov_ctr50
  store [2 x i64] zeroinitializer, [2 x i64]* @__llvm_gcov_ctr51
  store [2 x i64] zeroinitializer, [2 x i64]* @__llvm_gcov_ctr52
  ret void
}

; Function Attrs: noinline
define internal void @__llvm_gcov_init() unnamed_addr #8 {
entry:
  call void @llvm_gcov_init(void ()* @__llvm_gcov_writeout, void ()* @__llvm_gcov_flush)
  ret void
}

declare void @llvm_gcov_init(void ()*, void ()*)

attributes #0 = { "less-precise-fpmad"="false" "no-frame-pointer-elim"="true" "no-frame-pointer-elim-non-leaf" "no-infs-fp-math"="false" "no-nans-fp-math"="false" "stack-protector-buffer-size"="8" "unsafe-fp-math"="false" "use-soft-float"="false" }
attributes #1 = { nounwind }
attributes #2 = { nounwind uwtable "less-precise-fpmad"="false" "no-frame-pointer-elim"="true" "no-frame-pointer-elim-non-leaf" "no-infs-fp-math"="false" "no-nans-fp-math"="false" "stack-protector-buffer-size"="8" "unsafe-fp-math"="false" "use-soft-float"="false" }
attributes #3 = { nounwind readnone }
attributes #4 = { uwtable "less-precise-fpmad"="false" "no-frame-pointer-elim"="true" "no-frame-pointer-elim-non-leaf" "no-infs-fp-math"="false" "no-nans-fp-math"="false" "stack-protector-buffer-size"="8" "unsafe-fp-math"="false" "use-soft-float"="false" }
attributes #5 = { nobuiltin "less-precise-fpmad"="false" "no-frame-pointer-elim"="true" "no-frame-pointer-elim-non-leaf" "no-infs-fp-math"="false" "no-nans-fp-math"="false" "stack-protector-buffer-size"="8" "unsafe-fp-math"="false" "use-soft-float"="false" }
attributes #6 = { nobuiltin nounwind "less-precise-fpmad"="false" "no-frame-pointer-elim"="true" "no-frame-pointer-elim-non-leaf" "no-infs-fp-math"="false" "no-nans-fp-math"="false" "stack-protector-buffer-size"="8" "unsafe-fp-math"="false" "use-soft-float"="false" }
attributes #7 = { noreturn nounwind "less-precise-fpmad"="false" "no-frame-pointer-elim"="true" "no-frame-pointer-elim-non-leaf" "no-infs-fp-math"="false" "no-nans-fp-math"="false" "stack-protector-buffer-size"="8" "unsafe-fp-math"="false" "use-soft-float"="false" }
attributes #8 = { noinline }
attributes #9 = { builtin }
attributes #10 = { builtin nounwind }
attributes #11 = { noreturn nounwind }

!llvm.dbg.cu = !{!0}
!llvm.module.flags = !{!599, !600}
!llvm.gcov = !{!601}
!llvm.ident = !{!602}

!0 = !{!"0x11\004\00clang version 3.6.0 (https://github.com/llvm-mirror/clang f06a0c83eb2f36bf182224a127ad378f42ab5094) (https://github.com/llvm-mirror/llvm 0b37b7bf52b92f9e1e7ffaff4063fd1184d2eec3)\000\00\000\00\001", !1, !2, !14, !194, !228, !233} ; [ DW_TAG_compile_unit ] [/home/vanderson/dev/repos/GEOS1.0/GEOS/experiments/benchmarks/src/.hexxagon/hexxagonboard.cpp] [DW_LANG_C_plus_plus]
!1 = !{!"hexxagonboard.cpp", !"/home/vanderson/dev/repos/GEOS1.0/GEOS/experiments/benchmarks/src/.hexxagon"}
!2 = !{!3, !8}
!3 = !{!"0x4\00\0031\0032\0032\000\000\000", !4, null, null, !5, null, null, null} ; [ DW_TAG_enumeration_type ] [line 31, size 32, align 32, offset 0] [def] [from ]
!4 = !{!"./hexxagonboard.h", !"/home/vanderson/dev/repos/GEOS1.0/GEOS/experiments/benchmarks/src/.hexxagon"}
!5 = !{!6, !7}
!6 = !{!"0x28\00SCR_WIN\0020000"}                 ; [ DW_TAG_enumerator ] [SCR_WIN :: 20000]
!7 = !{!"0x28\00SCR_INFINITY\0032000"}            ; [ DW_TAG_enumerator ] [SCR_INFINITY :: 32000]
!8 = !{!"0x4\00\0038\0032\0032\000\000\000", !4, null, null, !9, null, null, null} ; [ DW_TAG_enumeration_type ] [line 38, size 32, align 32, offset 0] [def] [from ]
!9 = !{!10, !11, !12, !13}
!10 = !{!"0x28\00pl1\001"}                        ; [ DW_TAG_enumerator ] [pl1 :: 1]
!11 = !{!"0x28\00pl2\002"}                        ; [ DW_TAG_enumerator ] [pl2 :: 2]
!12 = !{!"0x28\00empty\003"}                      ; [ DW_TAG_enumerator ] [empty :: 3]
!13 = !{!"0x28\00removed\004"}                    ; [ DW_TAG_enumerator ] [removed :: 4]
!14 = !{!15, !21, !30, !32, !39, !40, !42, !45, !57, !100, !151, !167}
!15 = !{!"0x13\00\0082\0064\0032\000\000\000", !16, null, null, !17, null, null, !"_ZTS11__mbstate_t"} ; [ DW_TAG_structure_type ] [line 82, size 64, align 32, offset 0] [def] [from ]
!16 = !{!"/usr/include/wchar.h", !"/home/vanderson/dev/repos/GEOS1.0/GEOS/experiments/benchmarks/src/.hexxagon"}
!17 = !{!18, !20}
!18 = !{!"0xd\00__count\0084\0032\0032\000\000", !16, !"_ZTS11__mbstate_t", !19} ; [ DW_TAG_member ] [__count] [line 84, size 32, align 32, offset 0] [from int]
!19 = !{!"0x24\00int\000\0032\0032\000\000\005", null, null} ; [ DW_TAG_base_type ] [int] [line 0, size 32, align 32, offset 0, enc DW_ATE_signed]
!20 = !{!"0xd\00__value\0093\0032\0032\0032\000", !16, !"_ZTS11__mbstate_t", !"_ZTSN11__mbstate_tUt_E"} ; [ DW_TAG_member ] [__value] [line 93, size 32, align 32, offset 32] [from _ZTSN11__mbstate_tUt_E]
!21 = !{!"0x17\00\0085\0032\0032\000\000\000", !16, !"_ZTS11__mbstate_t", null, !22, null, null, !"_ZTSN11__mbstate_tUt_E"} ; [ DW_TAG_union_type ] [line 85, size 32, align 32, offset 0] [def] [from ]
!22 = !{!23, !25}
!23 = !{!"0xd\00__wch\0088\0032\0032\000\000", !16, !"_ZTSN11__mbstate_tUt_E", !24} ; [ DW_TAG_member ] [__wch] [line 88, size 32, align 32, offset 0] [from unsigned int]
!24 = !{!"0x24\00unsigned int\000\0032\0032\000\000\007", null, null} ; [ DW_TAG_base_type ] [unsigned int] [line 0, size 32, align 32, offset 0, enc DW_ATE_unsigned]
!25 = !{!"0xd\00__wchb\0092\0032\008\000\000", !16, !"_ZTSN11__mbstate_tUt_E", !26} ; [ DW_TAG_member ] [__wchb] [line 92, size 32, align 8, offset 0] [from ]
!26 = !{!"0x1\00\000\0032\008\000\000\000", null, null, !27, !28, null, null, null} ; [ DW_TAG_array_type ] [line 0, size 32, align 8, offset 0] [from char]
!27 = !{!"0x24\00char\000\008\008\000\000\006", null, null} ; [ DW_TAG_base_type ] [char] [line 0, size 8, align 8, offset 0, enc DW_ATE_signed_char]
!28 = !{!29}
!29 = !{!"0x21\000\004"}                          ; [ DW_TAG_subrange_type ] [0, 3]
!30 = !{!"0x13\00_IO_FILE\00245\000\000\000\004\000", !31, null, null, null, null, null, !"_ZTS8_IO_FILE"} ; [ DW_TAG_structure_type ] [_IO_FILE] [line 245, size 0, align 0, offset 0] [decl] [from ]
!31 = !{!"/usr/include/libio.h", !"/home/vanderson/dev/repos/GEOS1.0/GEOS/experiments/benchmarks/src/.hexxagon"}
!32 = !{!"0x13\00__va_list_tag\000\00192\0064\000\000\000", !1, null, null, !33, null, null, !"_ZTS13__va_list_tag"} ; [ DW_TAG_structure_type ] [__va_list_tag] [line 0, size 192, align 64, offset 0] [def] [from ]
!33 = !{!34, !35, !36, !38}
!34 = !{!"0xd\00gp_offset\000\0032\0032\000\000", !1, !"_ZTS13__va_list_tag", !24} ; [ DW_TAG_member ] [gp_offset] [line 0, size 32, align 32, offset 0] [from unsigned int]
!35 = !{!"0xd\00fp_offset\000\0032\0032\0032\000", !1, !"_ZTS13__va_list_tag", !24} ; [ DW_TAG_member ] [fp_offset] [line 0, size 32, align 32, offset 32] [from unsigned int]
!36 = !{!"0xd\00overflow_arg_area\000\0064\0064\0064\000", !1, !"_ZTS13__va_list_tag", !37} ; [ DW_TAG_member ] [overflow_arg_area] [line 0, size 64, align 64, offset 64] [from ]
!37 = !{!"0xf\00\000\0064\0064\000\000", null, null, null} ; [ DW_TAG_pointer_type ] [line 0, size 64, align 64, offset 0] [from ]
!38 = !{!"0xd\00reg_save_area\000\0064\0064\00128\000", !1, !"_ZTS13__va_list_tag", !37} ; [ DW_TAG_member ] [reg_save_area] [line 0, size 64, align 64, offset 128] [from ]
!39 = !{!"0x13\00tm\00137\000\000\000\004\000", !16, null, null, null, null, null, !"_ZTS2tm"} ; [ DW_TAG_structure_type ] [tm] [line 137, size 0, align 0, offset 0] [decl] [from ]
!40 = !{!"0x13\00lconv\0053\000\000\000\004\000", !41, null, null, null, null, null, !"_ZTS5lconv"} ; [ DW_TAG_structure_type ] [lconv] [line 53, size 0, align 0, offset 0] [decl] [from ]
!41 = !{!"/usr/include/locale.h", !"/home/vanderson/dev/repos/GEOS1.0/GEOS/experiments/benchmarks/src/.hexxagon"}
!42 = !{!"0x2\00ios_base\00199\000\000\000\004\000", !43, !44, null, null, null, null, !"_ZTSSt8ios_base"} ; [ DW_TAG_class_type ] [ios_base] [line 199, size 0, align 0, offset 0] [decl] [from ]
!43 = !{!"/usr/lib/gcc/x86_64-linux-gnu/4.8/../../../../include/c++/4.8/bits/ios_base.h", !"/home/vanderson/dev/repos/GEOS1.0/GEOS/experiments/benchmarks/src/.hexxagon"}
!44 = !{!"0x39\00std\000", !1, null}              ; [ DW_TAG_namespace ] [std] [line 0]
!45 = !{!"0x2\00Init\00533\008\008\000\000\000", !43, !"_ZTSSt8ios_base", null, !46, null, null, !"_ZTSNSt8ios_base4InitE"} ; [ DW_TAG_class_type ] [Init] [line 533, size 8, align 8, offset 0] [def] [from ]
!46 = !{!47, !50, !52, !56}
!47 = !{!"0xd\00_S_refcount\00541\000\000\000\004096", !43, !"_ZTSNSt8ios_base4InitE", !48, null} ; [ DW_TAG_member ] [_S_refcount] [line 541, size 0, align 0, offset 0] [static] [from _Atomic_word]
!48 = !{!"0x16\00_Atomic_word\0032\000\000\000\000", !49, null, !19} ; [ DW_TAG_typedef ] [_Atomic_word] [line 32, size 0, align 0, offset 0] [from int]
!49 = !{!"/usr/lib/gcc/x86_64-linux-gnu/4.8/../../../../include/x86_64-linux-gnu/c++/4.8/bits/atomic_word.h", !"/home/vanderson/dev/repos/GEOS1.0/GEOS/experiments/benchmarks/src/.hexxagon"}
!50 = !{!"0xd\00_S_synced_with_stdio\00542\000\000\000\004096", !43, !"_ZTSNSt8ios_base4InitE", !51, null} ; [ DW_TAG_member ] [_S_synced_with_stdio] [line 542, size 0, align 0, offset 0] [static] [from bool]
!51 = !{!"0x24\00bool\000\008\008\000\000\002", null, null} ; [ DW_TAG_base_type ] [bool] [line 0, size 8, align 8, offset 0, enc DW_ATE_boolean]
!52 = !{!"0x2e\00Init\00Init\00\00537\000\000\000\000\00259\000\00537", !43, !"_ZTSNSt8ios_base4InitE", !53, null, null, null, null, null} ; [ DW_TAG_subprogram ] [line 537] [public] [Init]
!53 = !{!"0x15\00\000\000\000\000\000\000", null, null, null, !54, null, null, null} ; [ DW_TAG_subroutine_type ] [line 0, size 0, align 0, offset 0] [from ]
!54 = !{null, !55}
!55 = !{!"0xf\00\000\0064\0064\000\001088\00", null, null, !"_ZTSNSt8ios_base4InitE"} ; [ DW_TAG_pointer_type ] [line 0, size 64, align 64, offset 0] [artificial] [from _ZTSNSt8ios_base4InitE]
!56 = !{!"0x2e\00~Init\00~Init\00\00538\000\000\000\000\00259\000\00538", !43, !"_ZTSNSt8ios_base4InitE", !53, null, null, null, null, null} ; [ DW_TAG_subprogram ] [line 538] [public] [~Init]
!57 = !{!"0x2\00BitBoard64\0031\0064\0032\000\000\000", !58, null, null, !59, null, null, !"_ZTS10BitBoard64"} ; [ DW_TAG_class_type ] [BitBoard64] [line 31, size 64, align 32, offset 0] [def] [from ]
!58 = !{!"./bitboard64.h", !"/home/vanderson/dev/repos/GEOS1.0/GEOS/experiments/benchmarks/src/.hexxagon"}
!59 = !{!60, !63, !64, !68, !71, !74, !75, !78, !83, !84, !85, !86, !89, !92, !93, !99}
!60 = !{!"0xd\00lowbits\0056\0032\0032\000\000", !58, !"_ZTS10BitBoard64", !61} ; [ DW_TAG_member ] [lowbits] [line 56, size 32, align 32, offset 0] [from uint32_t]
!61 = !{!"0x16\00uint32_t\0051\000\000\000\000", !62, null, !24} ; [ DW_TAG_typedef ] [uint32_t] [line 51, size 0, align 0, offset 0] [from unsigned int]
!62 = !{!"/usr/include/stdint.h", !"/home/vanderson/dev/repos/GEOS1.0/GEOS/experiments/benchmarks/src/.hexxagon"}
!63 = !{!"0xd\00highbits\0056\0032\0032\0032\000", !58, !"_ZTS10BitBoard64", !61} ; [ DW_TAG_member ] [highbits] [line 56, size 32, align 32, offset 32] [from uint32_t]
!64 = !{!"0x2e\00BitBoard64\00BitBoard64\00\0034\000\000\000\000\00259\000\0034", !58, !"_ZTS10BitBoard64", !65, null, null, null, null, null} ; [ DW_TAG_subprogram ] [line 34] [public] [BitBoard64]
!65 = !{!"0x15\00\000\000\000\000\000\000", null, null, null, !66, null, null, null} ; [ DW_TAG_subroutine_type ] [line 0, size 0, align 0, offset 0] [from ]
!66 = !{null, !67}
!67 = !{!"0xf\00\000\0064\0064\000\001088\00", null, null, !"_ZTS10BitBoard64"} ; [ DW_TAG_pointer_type ] [line 0, size 64, align 64, offset 0] [artificial] [from _ZTS10BitBoard64]
!68 = !{!"0x2e\00BitBoard64\00BitBoard64\00\0035\000\000\000\000\00259\000\0035", !58, !"_ZTS10BitBoard64", !69, null, null, null, null, null} ; [ DW_TAG_subprogram ] [line 35] [public] [BitBoard64]
!69 = !{!"0x15\00\000\000\000\000\000\000", null, null, null, !70, null, null, null} ; [ DW_TAG_subroutine_type ] [line 0, size 0, align 0, offset 0] [from ]
!70 = !{null, !67, !61, !61}
!71 = !{!"0x2e\00setBit\00setBit\00_ZN10BitBoard646setBitEi\0037\000\000\000\000\00259\000\0037", !58, !"_ZTS10BitBoard64", !72, null, null, null, null, null} ; [ DW_TAG_subprogram ] [line 37] [public] [setBit]
!72 = !{!"0x15\00\000\000\000\000\000\000", null, null, null, !73, null, null, null} ; [ DW_TAG_subroutine_type ] [line 0, size 0, align 0, offset 0] [from ]
!73 = !{null, !67, !19}
!74 = !{!"0x2e\00unSetBit\00unSetBit\00_ZN10BitBoard648unSetBitEi\0038\000\000\000\000\00259\000\0038", !58, !"_ZTS10BitBoard64", !72, null, null, null, null, null} ; [ DW_TAG_subprogram ] [line 38] [public] [unSetBit]
!75 = !{!"0x2e\00getBit\00getBit\00_ZN10BitBoard646getBitEi\0039\000\000\000\000\00259\000\0039", !58, !"_ZTS10BitBoard64", !76, null, null, null, null, null} ; [ DW_TAG_subprogram ] [line 39] [public] [getBit]
!76 = !{!"0x15\00\000\000\000\000\000\000", null, null, null, !77, null, null, null} ; [ DW_TAG_subroutine_type ] [line 0, size 0, align 0, offset 0] [from ]
!77 = !{!19, !67, !19}
!78 = !{!"0x2e\00operator&\00operator&\00_ZN10BitBoard64anERKS_\0041\000\000\000\000\00259\000\0041", !58, !"_ZTS10BitBoard64", !79, null, null, null, null, null} ; [ DW_TAG_subprogram ] [line 41] [public] [operator&]
!79 = !{!"0x15\00\000\000\000\000\000\000", null, null, null, !80, null, null, null} ; [ DW_TAG_subroutine_type ] [line 0, size 0, align 0, offset 0] [from ]
!80 = !{!"_ZTS10BitBoard64", !67, !81}
!81 = !{!"0x10\00\000\000\000\000\000", null, null, !82} ; [ DW_TAG_reference_type ] [line 0, size 0, align 0, offset 0] [from ]
!82 = !{!"0x26\00\000\000\000\000\000", null, null, !"_ZTS10BitBoard64"} ; [ DW_TAG_const_type ] [line 0, size 0, align 0, offset 0] [from _ZTS10BitBoard64]
!83 = !{!"0x2e\00operator|\00operator|\00_ZN10BitBoard64orERKS_\0042\000\000\000\000\00259\000\0042", !58, !"_ZTS10BitBoard64", !79, null, null, null, null, null} ; [ DW_TAG_subprogram ] [line 42] [public] [operator|]
!84 = !{!"0x2e\00operator^\00operator^\00_ZN10BitBoard64eoERKS_\0043\000\000\000\000\00259\000\0043", !58, !"_ZTS10BitBoard64", !79, null, null, null, null, null} ; [ DW_TAG_subprogram ] [line 43] [public] [operator^]
!85 = !{!"0x2e\00operator=\00operator=\00_ZN10BitBoard64aSERKS_\0044\000\000\000\000\00259\000\0044", !58, !"_ZTS10BitBoard64", !79, null, null, null, null, null} ; [ DW_TAG_subprogram ] [line 44] [public] [operator=]
!86 = !{!"0x2e\00operator~\00operator~\00_ZN10BitBoard64coEv\0045\000\000\000\000\00259\000\0045", !58, !"_ZTS10BitBoard64", !87, null, null, null, null, null} ; [ DW_TAG_subprogram ] [line 45] [public] [operator~]
!87 = !{!"0x15\00\000\000\000\000\000\000", null, null, null, !88, null, null, null} ; [ DW_TAG_subroutine_type ] [line 0, size 0, align 0, offset 0] [from ]
!88 = !{!"_ZTS10BitBoard64", !67}
!89 = !{!"0x2e\00operator bool\00operator bool\00_ZN10BitBoard64cvbEv\0047\000\000\000\000\00259\000\0047", !58, !"_ZTS10BitBoard64", !90, null, null, null, null, null} ; [ DW_TAG_subprogram ] [line 47] [public] [operator bool]
!90 = !{!"0x15\00\000\000\000\000\000\000", null, null, null, !91, null, null, null} ; [ DW_TAG_subroutine_type ] [line 0, size 0, align 0, offset 0] [from ]
!91 = !{!51, !67}
!92 = !{!"0x2e\00print\00print\00_ZN10BitBoard645printEv\0049\000\000\000\000\00259\000\0049", !58, !"_ZTS10BitBoard64", !65, null, null, null, null, null} ; [ DW_TAG_subprogram ] [line 49] [public] [print]
!93 = !{!"0x2e\00readFromFile\00readFromFile\00_ZN10BitBoard6412readFromFileEP8_IO_FILE\0051\000\000\000\000\00259\000\0051", !58, !"_ZTS10BitBoard64", !94, null, null, null, null, null} ; [ DW_TAG_subprogram ] [line 51] [public] [readFromFile]
!94 = !{!"0x15\00\000\000\000\000\000\000", null, null, null, !95, null, null, null} ; [ DW_TAG_subroutine_type ] [line 0, size 0, align 0, offset 0] [from ]
!95 = !{!19, !67, !96}
!96 = !{!"0xf\00\000\0064\0064\000\000", null, null, !97} ; [ DW_TAG_pointer_type ] [line 0, size 64, align 64, offset 0] [from FILE]
!97 = !{!"0x16\00FILE\0048\000\000\000\000", !98, null, !"_ZTS8_IO_FILE"} ; [ DW_TAG_typedef ] [FILE] [line 48, size 0, align 0, offset 0] [from _ZTS8_IO_FILE]
!98 = !{!"/usr/include/stdio.h", !"/home/vanderson/dev/repos/GEOS1.0/GEOS/experiments/benchmarks/src/.hexxagon"}
!99 = !{!"0x2e\00writeToFile\00writeToFile\00_ZN10BitBoard6411writeToFileEP8_IO_FILE\0052\000\000\000\000\00259\000\0052", !58, !"_ZTS10BitBoard64", !94, null, null, null, null, null} ; [ DW_TAG_subprogram ] [line 52] [public] [writeToFile]
!100 = !{!"0x2\00HexxagonBoard\0050\00128\0032\000\000\000", !4, null, null, !101, null, null, !"_ZTS13HexxagonBoard"} ; [ DW_TAG_class_type ] [HexxagonBoard] [line 50, size 128, align 32, offset 0] [def] [from ]
!101 = !{!102, !103, !104, !108, !113, !114, !117, !120, !121, !125, !129, !135, !136, !137, !140, !141, !144, !147, !148}
!102 = !{!"0xd\00board\0080\0064\0032\000\002", !4, !"_ZTS13HexxagonBoard", !"_ZTS10BitBoard64"} ; [ DW_TAG_member ] [board] [line 80, size 64, align 32, offset 0] [protected] [from _ZTS10BitBoard64]
!103 = !{!"0xd\00color\0081\0064\0032\0064\002", !4, !"_ZTS13HexxagonBoard", !"_ZTS10BitBoard64"} ; [ DW_TAG_member ] [color] [line 81, size 64, align 32, offset 64] [protected] [from _ZTS10BitBoard64]
!104 = !{!"0x2e\00HexxagonBoard\00HexxagonBoard\00\0054\000\000\000\000\00259\000\0054", !4, !"_ZTS13HexxagonBoard", !105, null, null, null, null, null} ; [ DW_TAG_subprogram ] [line 54] [public] [HexxagonBoard]
!105 = !{!"0x15\00\000\000\000\000\000\000", null, null, null, !106, null, null, null} ; [ DW_TAG_subroutine_type ] [line 0, size 0, align 0, offset 0] [from ]
!106 = !{null, !107}
!107 = !{!"0xf\00\000\0064\0064\000\001088\00", null, null, !"_ZTS13HexxagonBoard"} ; [ DW_TAG_pointer_type ] [line 0, size 64, align 64, offset 0] [artificial] [from _ZTS13HexxagonBoard]
!108 = !{!"0x2e\00HexxagonBoard\00HexxagonBoard\00\0055\000\000\000\000\00259\000\0055", !4, !"_ZTS13HexxagonBoard", !109, null, null, null, null, null} ; [ DW_TAG_subprogram ] [line 55] [public] [HexxagonBoard]
!109 = !{!"0x15\00\000\000\000\000\000\000", null, null, null, !110, null, null, null} ; [ DW_TAG_subroutine_type ] [line 0, size 0, align 0, offset 0] [from ]
!110 = !{null, !107, !111}
!111 = !{!"0x10\00\000\000\000\000\000", null, null, !112} ; [ DW_TAG_reference_type ] [line 0, size 0, align 0, offset 0] [from ]
!112 = !{!"0x26\00\000\000\000\000\000", null, null, !"_ZTS13HexxagonBoard"} ; [ DW_TAG_const_type ] [line 0, size 0, align 0, offset 0] [from _ZTS13HexxagonBoard]
!113 = !{!"0x2e\00init\00init\00_ZN13HexxagonBoard4initEv\0057\000\000\000\000\00259\000\0057", !4, !"_ZTS13HexxagonBoard", !105, null, null, null, null, null} ; [ DW_TAG_subprogram ] [line 57] [public] [init]
!114 = !{!"0x2e\00evaluate\00evaluate\00_ZN13HexxagonBoard8evaluateEv\0058\000\000\000\000\00259\000\0058", !4, !"_ZTS13HexxagonBoard", !115, null, null, null, null, null} ; [ DW_TAG_subprogram ] [line 58] [public] [evaluate]
!115 = !{!"0x15\00\000\000\000\000\000\000", null, null, null, !116, null, null, null} ; [ DW_TAG_subroutine_type ] [line 0, size 0, align 0, offset 0] [from ]
!116 = !{!19, !107}
!117 = !{!"0x2e\00countBricks\00countBricks\00_ZN13HexxagonBoard11countBricksEi\0059\000\000\000\000\00259\000\0059", !4, !"_ZTS13HexxagonBoard", !118, null, null, null, null, null} ; [ DW_TAG_subprogram ] [line 59] [public] [countBricks]
!118 = !{!"0x15\00\000\000\000\000\000\000", null, null, null, !119, null, null, null} ; [ DW_TAG_subroutine_type ] [line 0, size 0, align 0, offset 0] [from ]
!119 = !{!19, !107, !19}
!120 = !{!"0x2e\00getHexxagon\00getHexxagon\00_ZN13HexxagonBoard11getHexxagonEi\0060\000\000\000\000\00259\000\0060", !4, !"_ZTS13HexxagonBoard", !118, null, null, null, null, null} ; [ DW_TAG_subprogram ] [line 60] [public] [getHexxagon]
!121 = !{!"0x2e\00applyMove\00applyMove\00_ZN13HexxagonBoard9applyMoveER12HexxagonMove\0061\000\000\000\000\00259\000\0061", !4, !"_ZTS13HexxagonBoard", !122, null, null, null, null, null} ; [ DW_TAG_subprogram ] [line 61] [public] [applyMove]
!122 = !{!"0x15\00\000\000\000\000\000\000", null, null, null, !123, null, null, null} ; [ DW_TAG_subroutine_type ] [line 0, size 0, align 0, offset 0] [from ]
!123 = !{!19, !107, !124}
!124 = !{!"0x10\00\000\000\000\000\000", null, null, !"_ZTS12HexxagonMove"} ; [ DW_TAG_reference_type ] [line 0, size 0, align 0, offset 0] [from _ZTS12HexxagonMove]
!125 = !{!"0x2e\00generateMoveList\00generateMoveList\00_ZN13HexxagonBoard16generateMoveListEv\0063\000\000\000\000\00259\000\0063", !4, !"_ZTS13HexxagonBoard", !126, null, null, null, null, null} ; [ DW_TAG_subprogram ] [line 63] [public] [generateMoveList]
!126 = !{!"0x15\00\000\000\000\000\000\000", null, null, null, !127, null, null, null} ; [ DW_TAG_subroutine_type ] [line 0, size 0, align 0, offset 0] [from ]
!127 = !{!128, !107}
!128 = !{!"0xf\00\000\0064\0064\000\000", null, null, !"_ZTS16HexxagonMoveList"} ; [ DW_TAG_pointer_type ] [line 0, size 64, align 64, offset 0] [from _ZTS16HexxagonMoveList]
!129 = !{!"0x2e\00computerMove\00computerMove\00_ZN13HexxagonBoard12computerMoveEiPFvvEi\0065\000\000\000\000\00259\000\0065", !4, !"_ZTS13HexxagonBoard", !130, null, null, null, null, null} ; [ DW_TAG_subprogram ] [line 65] [public] [computerMove]
!130 = !{!"0x15\00\000\000\000\000\000\000", null, null, null, !131, null, null, null} ; [ DW_TAG_subroutine_type ] [line 0, size 0, align 0, offset 0] [from ]
!131 = !{!19, !107, !19, !132, !19}
!132 = !{!"0xf\00\000\0064\0064\000\000", null, null, !133} ; [ DW_TAG_pointer_type ] [line 0, size 64, align 64, offset 0] [from ]
!133 = !{!"0x15\00\000\000\000\000\000\000", null, null, null, !134, null, null, null} ; [ DW_TAG_subroutine_type ] [line 0, size 0, align 0, offset 0] [from ]
!134 = !{null}
!135 = !{!"0x2e\00endOfGame\00endOfGame\00_ZN13HexxagonBoard9endOfGameEv\0066\000\000\000\000\00259\000\0066", !4, !"_ZTS13HexxagonBoard", !115, null, null, null, null, null} ; [ DW_TAG_subprogram ] [line 66] [public] [endOfGame]
!136 = !{!"0x2e\00isMoveValid\00isMoveValid\00_ZN13HexxagonBoard11isMoveValidER12HexxagonMove\0067\000\000\000\000\00259\000\0067", !4, !"_ZTS13HexxagonBoard", !122, null, null, null, null, null} ; [ DW_TAG_subprogram ] [line 67] [public] [isMoveValid]
!137 = !{!"0x2e\00getBBBoard\00getBBBoard\00_ZN13HexxagonBoard10getBBBoardEv\0069\000\000\000\000\00259\000\0069", !4, !"_ZTS13HexxagonBoard", !138, null, null, null, null, null} ; [ DW_TAG_subprogram ] [line 69] [public] [getBBBoard]
!138 = !{!"0x15\00\000\000\000\000\000\000", null, null, null, !139, null, null, null} ; [ DW_TAG_subroutine_type ] [line 0, size 0, align 0, offset 0] [from ]
!139 = !{!"_ZTS10BitBoard64", !107}
!140 = !{!"0x2e\00getBBColor\00getBBColor\00_ZN13HexxagonBoard10getBBColorEv\0070\000\000\000\000\00259\000\0070", !4, !"_ZTS13HexxagonBoard", !138, null, null, null, null, null} ; [ DW_TAG_subprogram ] [line 70] [public] [getBBColor]
!141 = !{!"0x2e\00operator=\00operator=\00_ZN13HexxagonBoardaSERKS_\0072\000\000\000\000\00259\000\0072", !4, !"_ZTS13HexxagonBoard", !142, null, null, null, null, null} ; [ DW_TAG_subprogram ] [line 72] [public] [operator=]
!142 = !{!"0x15\00\000\000\000\000\000\000", null, null, null, !143, null, null, null} ; [ DW_TAG_subroutine_type ] [line 0, size 0, align 0, offset 0] [from ]
!143 = !{!"_ZTS13HexxagonBoard", !107, !111}
!144 = !{!"0x2e\00readFromFile\00readFromFile\00_ZN13HexxagonBoard12readFromFileEP8_IO_FILE\0074\000\000\000\000\00259\000\0074", !4, !"_ZTS13HexxagonBoard", !145, null, null, null, null, null} ; [ DW_TAG_subprogram ] [line 74] [public] [readFromFile]
!145 = !{!"0x15\00\000\000\000\000\000\000", null, null, null, !146, null, null, null} ; [ DW_TAG_subroutine_type ] [line 0, size 0, align 0, offset 0] [from ]
!146 = !{!19, !107, !96}
!147 = !{!"0x2e\00writeToFile\00writeToFile\00_ZN13HexxagonBoard11writeToFileEP8_IO_FILE\0075\000\000\000\000\00259\000\0075", !4, !"_ZTS13HexxagonBoard", !145, null, null, null, null, null} ; [ DW_TAG_subprogram ] [line 75] [public] [writeToFile]
!148 = !{!"0x2e\00displayBoardText\00displayBoardText\00_ZN13HexxagonBoard16displayBoardTextEi\0077\000\000\000\000\00259\000\0077", !4, !"_ZTS13HexxagonBoard", !149, null, null, null, null, null} ; [ DW_TAG_subprogram ] [line 77] [public] [displayBoardText]
!149 = !{!"0x15\00\000\000\000\000\000\000", null, null, null, !150, null, null, null} ; [ DW_TAG_subroutine_type ] [line 0, size 0, align 0, offset 0] [from ]
!150 = !{null, !107, !19}
!151 = !{!"0x2\00HexxagonMove\0032\0064\0032\000\000\000", !152, null, null, !153, null, null, !"_ZTS12HexxagonMove"} ; [ DW_TAG_class_type ] [HexxagonMove] [line 32, size 64, align 32, offset 0] [def] [from ]
!152 = !{!"./hexxagonmove.h", !"/home/vanderson/dev/repos/GEOS1.0/GEOS/experiments/benchmarks/src/.hexxagon"}
!153 = !{!154, !155, !156, !157, !161, !164}
!154 = !{!"0xd\00from\0039\008\008\000\003", !152, !"_ZTS12HexxagonMove", !27} ; [ DW_TAG_member ] [from] [line 39, size 8, align 8, offset 0] [public] [from char]
!155 = !{!"0xd\00to\0039\008\008\008\003", !152, !"_ZTS12HexxagonMove", !27} ; [ DW_TAG_member ] [to] [line 39, size 8, align 8, offset 8] [public] [from char]
!156 = !{!"0xd\00score\0040\0032\0032\0032\003", !152, !"_ZTS12HexxagonMove", !19} ; [ DW_TAG_member ] [score] [line 40, size 32, align 32, offset 32] [public] [from int]
!157 = !{!"0x2e\00HexxagonMove\00HexxagonMove\00\0035\000\000\000\000\00259\000\0035", !152, !"_ZTS12HexxagonMove", !158, null, null, null, null, null} ; [ DW_TAG_subprogram ] [line 35] [public] [HexxagonMove]
!158 = !{!"0x15\00\000\000\000\000\000\000", null, null, null, !159, null, null, null} ; [ DW_TAG_subroutine_type ] [line 0, size 0, align 0, offset 0] [from ]
!159 = !{null, !160}
!160 = !{!"0xf\00\000\0064\0064\000\001088\00", null, null, !"_ZTS12HexxagonMove"} ; [ DW_TAG_pointer_type ] [line 0, size 64, align 64, offset 0] [artificial] [from _ZTS12HexxagonMove]
!161 = !{!"0x2e\00HexxagonMove\00HexxagonMove\00\0036\000\000\000\000\00259\000\0036", !152, !"_ZTS12HexxagonMove", !162, null, null, null, null, null} ; [ DW_TAG_subprogram ] [line 36] [public] [HexxagonMove]
!162 = !{!"0x15\00\000\000\000\000\000\000", null, null, null, !163, null, null, null} ; [ DW_TAG_subroutine_type ] [line 0, size 0, align 0, offset 0] [from ]
!163 = !{null, !160, !19}
!164 = !{!"0x2e\00HexxagonMove\00HexxagonMove\00\0037\000\000\000\000\00259\000\0037", !152, !"_ZTS12HexxagonMove", !165, null, null, null, null, null} ; [ DW_TAG_subprogram ] [line 37] [public] [HexxagonMove]
!165 = !{!"0x15\00\000\000\000\000\000\000", null, null, null, !166, null, null, null} ; [ DW_TAG_subroutine_type ] [line 0, size 0, align 0, offset 0] [from ]
!166 = !{null, !160, !19, !19}
!167 = !{!"0x2\00HexxagonMoveList\0043\00128\0064\000\000\000", !152, null, null, !168, null, null, !"_ZTS16HexxagonMoveList"} ; [ DW_TAG_class_type ] [HexxagonMoveList] [line 43, size 128, align 64, offset 0] [def] [from ]
!168 = !{!169, !170, !172, !176, !177, !180, !181, !182, !185, !188, !191}
!169 = !{!"0xd\00nr_moves\0062\0032\0032\000\000", !152, !"_ZTS16HexxagonMoveList", !19} ; [ DW_TAG_member ] [nr_moves] [line 62, size 32, align 32, offset 0] [from int]
!170 = !{!"0xd\00moves\0063\0064\0064\0064\000", !152, !"_ZTS16HexxagonMoveList", !171} ; [ DW_TAG_member ] [moves] [line 63, size 64, align 64, offset 64] [from ]
!171 = !{!"0xf\00\000\0064\0064\000\000", null, null, !"_ZTS12HexxagonMove"} ; [ DW_TAG_pointer_type ] [line 0, size 64, align 64, offset 0] [from _ZTS12HexxagonMove]
!172 = !{!"0x2e\00HexxagonMoveList\00HexxagonMoveList\00\0046\000\000\000\000\00259\000\0046", !152, !"_ZTS16HexxagonMoveList", !173, null, null, null, null, null} ; [ DW_TAG_subprogram ] [line 46] [public] [HexxagonMoveList]
!173 = !{!"0x15\00\000\000\000\000\000\000", null, null, null, !174, null, null, null} ; [ DW_TAG_subroutine_type ] [line 0, size 0, align 0, offset 0] [from ]
!174 = !{null, !175}
!175 = !{!"0xf\00\000\0064\0064\000\001088\00", null, null, !"_ZTS16HexxagonMoveList"} ; [ DW_TAG_pointer_type ] [line 0, size 64, align 64, offset 0] [artificial] [from _ZTS16HexxagonMoveList]
!176 = !{!"0x2e\00~HexxagonMoveList\00~HexxagonMoveList\00\0047\000\000\000\000\00259\000\0047", !152, !"_ZTS16HexxagonMoveList", !173, null, null, null, null, null} ; [ DW_TAG_subprogram ] [line 47] [public] [~HexxagonMoveList]
!177 = !{!"0x2e\00scoreAllMoves\00scoreAllMoves\00_ZN16HexxagonMoveList13scoreAllMovesE13HexxagonBoardiPFvvEi\0049\000\000\000\000\00259\000\0049", !152, !"_ZTS16HexxagonMoveList", !178, null, null, null, null, null} ; [ DW_TAG_subprogram ] [line 49] [public] [scoreAllMoves]
!178 = !{!"0x15\00\000\000\000\000\000\000", null, null, null, !179, null, null, null} ; [ DW_TAG_subroutine_type ] [line 0, size 0, align 0, offset 0] [from ]
!179 = !{null, !175, !"_ZTS13HexxagonBoard", !19, !132, !19}
!180 = !{!"0x2e\00sortList\00sortList\00_ZN16HexxagonMoveList8sortListEv\0050\000\000\000\000\00259\000\0050", !152, !"_ZTS16HexxagonMoveList", !173, null, null, null, null, null} ; [ DW_TAG_subprogram ] [line 50] [public] [sortList]
!181 = !{!"0x2e\00sortListQuick\00sortListQuick\00_ZN16HexxagonMoveList13sortListQuickEv\0051\000\000\000\000\00259\000\0051", !152, !"_ZTS16HexxagonMoveList", !173, null, null, null, null, null} ; [ DW_TAG_subprogram ] [line 51] [public] [sortListQuick]
!182 = !{!"0x2e\00getNrMoves\00getNrMoves\00_ZN16HexxagonMoveList10getNrMovesEv\0053\000\000\000\000\00259\000\0053", !152, !"_ZTS16HexxagonMoveList", !183, null, null, null, null, null} ; [ DW_TAG_subprogram ] [line 53] [public] [getNrMoves]
!183 = !{!"0x15\00\000\000\000\000\000\000", null, null, null, !184, null, null, null} ; [ DW_TAG_subroutine_type ] [line 0, size 0, align 0, offset 0] [from ]
!184 = !{!19, !175}
!185 = !{!"0x2e\00addMove\00addMove\00_ZN16HexxagonMoveList7addMoveER12HexxagonMove\0055\000\000\000\000\00259\000\0055", !152, !"_ZTS16HexxagonMoveList", !186, null, null, null, null, null} ; [ DW_TAG_subprogram ] [line 55] [public] [addMove]
!186 = !{!"0x15\00\000\000\000\000\000\000", null, null, null, !187, null, null, null} ; [ DW_TAG_subroutine_type ] [line 0, size 0, align 0, offset 0] [from ]
!187 = !{null, !175, !124}
!188 = !{!"0x2e\00getMove\00getMove\00_ZN16HexxagonMoveList7getMoveEi\0056\000\000\000\000\00259\000\0056", !152, !"_ZTS16HexxagonMoveList", !189, null, null, null, null, null} ; [ DW_TAG_subprogram ] [line 56] [public] [getMove]
!189 = !{!"0x15\00\000\000\000\000\000\000", null, null, null, !190, null, null, null} ; [ DW_TAG_subroutine_type ] [line 0, size 0, align 0, offset 0] [from ]
!190 = !{!171, !175, !19}
!191 = !{!"0x2e\00getBestMove\00getBestMove\00_ZN16HexxagonMoveList11getBestMoveEv\0058\000\000\000\000\00259\000\0058", !152, !"_ZTS16HexxagonMoveList", !192, null, null, null, null, null} ; [ DW_TAG_subprogram ] [line 58] [public] [getBestMove]
!192 = !{!"0x15\00\000\000\000\000\000\000", null, null, null, !193, null, null, null} ; [ DW_TAG_subroutine_type ] [line 0, size 0, align 0, offset 0] [from ]
!193 = !{!171, !175}
!194 = !{!195, !199, !203, !204, !205, !206, !207, !208, !209, !210, !211, !212, !213, !214, !215, !216, !217, !218, !219, !220, !221, !222, !223, !224, !225, !226}
!195 = !{!"0x2e\00__cxx_global_var_init\00__cxx_global_var_init\00\0074\001\001\000\000\00256\000\0074", !196, !197, !133, null, void ()* @__cxx_global_var_init, null, null, !198} ; [ DW_TAG_subprogram ] [line 74] [local] [def] [__cxx_global_var_init]
!196 = !{!"/usr/lib/gcc/x86_64-linux-gnu/4.8/../../../../include/c++/4.8/iostream", !"/home/vanderson/dev/repos/GEOS1.0/GEOS/experiments/benchmarks/src/.hexxagon"}
!197 = !{!"0x29", !196}                           ; [ DW_TAG_file_type ] [/home/vanderson/dev/repos/GEOS1.0/GEOS/experiments/benchmarks/src/.hexxagon//usr/lib/gcc/x86_64-linux-gnu/4.8/../../../../include/c++/4.8/iostream]
!198 = !{}
!199 = !{!"0x2e\00getHexxagonIndex\00getHexxagonIndex\00_Z16getHexxagonIndexii\0033\000\001\000\000\00256\000\0034", !1, !200, !201, null, i32 (i32, i32)* @_Z16getHexxagonIndexii, null, null, !198} ; [ DW_TAG_subprogram ] [line 33] [def] [scope 34] [getHexxagonIndex]
!200 = !{!"0x29", !1}                             ; [ DW_TAG_file_type ] [/home/vanderson/dev/repos/GEOS1.0/GEOS/experiments/benchmarks/src/.hexxagon/hexxagonboard.cpp]
!201 = !{!"0x15\00\000\000\000\000\000\000", null, null, null, !202, null, null, null} ; [ DW_TAG_subroutine_type ] [line 0, size 0, align 0, offset 0] [from ]
!202 = !{!19, !19, !19}
!203 = !{!"0x2e\00initCloneLookups\00initCloneLookups\00_Z16initCloneLookupsv\0064\000\001\000\000\00256\000\0065", !1, !200, !133, null, void ()* @_Z16initCloneLookupsv, null, null, !198} ; [ DW_TAG_subprogram ] [line 64] [def] [scope 65] [initCloneLookups]
!204 = !{!"0x2e\00initJumpLookups\00initJumpLookups\00_Z15initJumpLookupsv\00105\000\001\000\000\00256\000\00106", !1, !200, !133, null, void ()* @_Z15initJumpLookupsv, null, null, !198} ; [ DW_TAG_subprogram ] [line 105] [def] [scope 106] [initJumpLookups]
!205 = !{!"0x2e\00HexxagonBoard\00HexxagonBoard\00_ZN13HexxagonBoardC2ERKS_\00152\000\001\000\000\00256\000\00153", !1, !"_ZTS13HexxagonBoard", !109, null, void (%class.HexxagonBoard*, %class.HexxagonBoard*)* @_ZN13HexxagonBoardC2ERKS_, null, !108, !198} ; [ DW_TAG_subprogram ] [line 152] [def] [scope 153] [HexxagonBoard]
!206 = !{!"0x2e\00operator=\00operator=\00_ZN13HexxagonBoardaSERKS_\00158\000\001\000\000\00256\000\00159", !1, !"_ZTS13HexxagonBoard", !142, null, void (%class.HexxagonBoard*, %class.HexxagonBoard*, %class.HexxagonBoard*)* @_ZN13HexxagonBoardaSERKS_, null, !141, !198} ; [ DW_TAG_subprogram ] [line 158] [def] [scope 159] [operator=]
!207 = !{!"0x2e\00init\00init\00_ZN13HexxagonBoard4initEv\00166\000\001\000\000\00256\000\00167", !1, !"_ZTS13HexxagonBoard", !105, null, void (%class.HexxagonBoard*)* @_ZN13HexxagonBoard4initEv, null, !113, !198} ; [ DW_TAG_subprogram ] [line 166] [def] [scope 167] [init]
!208 = !{!"0x2e\00countBricks\00countBricks\00_ZN13HexxagonBoard11countBricksEi\00179\000\001\000\000\00256\000\00180", !1, !"_ZTS13HexxagonBoard", !118, null, i32 (%class.HexxagonBoard*, i32)* @_ZN13HexxagonBoard11countBricksEi, null, !117, !198} ; [ DW_TAG_subprogram ] [line 179] [def] [scope 180] [countBricks]
!209 = !{!"0x2e\00evaluate\00evaluate\00_ZN13HexxagonBoard8evaluateEv\00204\000\001\000\000\00256\000\00205", !1, !"_ZTS13HexxagonBoard", !115, null, i32 (%class.HexxagonBoard*)* @_ZN13HexxagonBoard8evaluateEv, null, !114, !198} ; [ DW_TAG_subprogram ] [line 204] [def] [scope 205] [evaluate]
!210 = !{!"0x2e\00getHexxagon\00getHexxagon\00_ZN13HexxagonBoard11getHexxagonEi\00245\000\001\000\000\00256\000\00246", !1, !"_ZTS13HexxagonBoard", !118, null, i32 (%class.HexxagonBoard*, i32)* @_ZN13HexxagonBoard11getHexxagonEi, null, !120, !198} ; [ DW_TAG_subprogram ] [line 245] [def] [scope 246] [getHexxagon]
!211 = !{!"0x2e\00applyMove\00applyMove\00_ZN13HexxagonBoard9applyMoveER12HexxagonMove\00257\000\001\000\000\00256\000\00258", !1, !"_ZTS13HexxagonBoard", !122, null, i32 (%class.HexxagonBoard*, %class.HexxagonMove*)* @_ZN13HexxagonBoard9applyMoveER12HexxagonMove, null, !121, !198} ; [ DW_TAG_subprogram ] [line 257] [def] [scope 258] [applyMove]
!212 = !{!"0x2e\00isMoveValid\00isMoveValid\00_ZN13HexxagonBoard11isMoveValidER12HexxagonMove\00272\000\001\000\000\00256\000\00273", !1, !"_ZTS13HexxagonBoard", !122, null, i32 (%class.HexxagonBoard*, %class.HexxagonMove*)* @_ZN13HexxagonBoard11isMoveValidER12HexxagonMove, null, !136, !198} ; [ DW_TAG_subprogram ] [line 272] [def] [scope 273] [isMoveValid]
!213 = !{!"0x2e\00generateMoveList\00generateMoveList\00_ZN13HexxagonBoard16generateMoveListEv\00296\000\001\000\000\00256\000\00297", !1, !"_ZTS13HexxagonBoard", !126, null, %class.HexxagonMoveList* (%class.HexxagonBoard*)* @_ZN13HexxagonBoard16generateMoveListEv, null, !125, !198} ; [ DW_TAG_subprogram ] [line 296] [def] [scope 297] [generateMoveList]
!214 = !{!"0x2e\00endOfGame\00endOfGame\00_ZN13HexxagonBoard9endOfGameEv\00338\000\001\000\000\00256\000\00339", !1, !"_ZTS13HexxagonBoard", !115, null, i32 (%class.HexxagonBoard*)* @_ZN13HexxagonBoard9endOfGameEv, null, !135, !198} ; [ DW_TAG_subprogram ] [line 338] [def] [scope 339] [endOfGame]
!215 = !{!"0x2e\00computerMove\00computerMove\00_ZN13HexxagonBoard12computerMoveEiPFvvEi\00352\000\001\000\000\00256\000\00353", !1, !"_ZTS13HexxagonBoard", !130, null, i32 (%class.HexxagonBoard*, i32, void ()*, i32)* @_ZN13HexxagonBoard12computerMoveEiPFvvEi, null, !129, !198} ; [ DW_TAG_subprogram ] [line 352] [def] [scope 353] [computerMove]
!216 = !{!"0x2e\00readFromFile\00readFromFile\00_ZN13HexxagonBoard12readFromFileEP8_IO_FILE\00370\000\001\000\000\00256\000\00371", !1, !"_ZTS13HexxagonBoard", !145, null, i32 (%class.HexxagonBoard*, %struct._IO_FILE*)* @_ZN13HexxagonBoard12readFromFileEP8_IO_FILE, null, !144, !198} ; [ DW_TAG_subprogram ] [line 370] [def] [scope 371] [readFromFile]
!217 = !{!"0x2e\00writeToFile\00writeToFile\00_ZN13HexxagonBoard11writeToFileEP8_IO_FILE\00378\000\001\000\000\00256\000\00379", !1, !"_ZTS13HexxagonBoard", !145, null, i32 (%class.HexxagonBoard*, %struct._IO_FILE*)* @_ZN13HexxagonBoard11writeToFileEP8_IO_FILE, null, !147, !198} ; [ DW_TAG_subprogram ] [line 378] [def] [scope 379] [writeToFile]
!218 = !{!"0x2e\00displayBoardText\00displayBoardText\00_ZN13HexxagonBoard16displayBoardTextEi\00386\000\001\000\000\00256\000\00387", !1, !"_ZTS13HexxagonBoard", !149, null, void (%class.HexxagonBoard*, i32)* @_ZN13HexxagonBoard16displayBoardTextEi, null, !148, !198} ; [ DW_TAG_subprogram ] [line 386] [def] [scope 387] [displayBoardText]
!219 = !{!"0x2e\00~HexxagonMoveList\00~HexxagonMoveList\00_ZN16HexxagonMoveListD2Ev\0047\000\001\000\000\00256\000\0047", !152, !"_ZTS16HexxagonMoveList", !173, null, void (%class.HexxagonMoveList*)* @_ZN16HexxagonMoveListD2Ev, null, !176, !198} ; [ DW_TAG_subprogram ] [line 47] [def] [~HexxagonMoveList]
!220 = !{!"0x2e\00HexxagonMove\00HexxagonMove\00_ZN12HexxagonMoveC2Eii\0037\000\001\000\000\00256\000\0037", !152, !"_ZTS12HexxagonMove", !165, null, void (%class.HexxagonMove*, i32, i32)* @_ZN12HexxagonMoveC2Eii, null, !164, !198} ; [ DW_TAG_subprogram ] [line 37] [def] [HexxagonMove]
!221 = !{!"0x2e\00HexxagonMove\00HexxagonMove\00_ZN12HexxagonMoveC2Ei\0036\000\001\000\000\00256\000\0036", !152, !"_ZTS12HexxagonMove", !162, null, void (%class.HexxagonMove*, i32)* @_ZN12HexxagonMoveC2Ei, null, !161, !198} ; [ DW_TAG_subprogram ] [line 36] [def] [HexxagonMove]
!222 = !{!"0x2e\00HexxagonMoveList\00HexxagonMoveList\00_ZN16HexxagonMoveListC2Ev\0046\000\001\000\000\00256\000\0046", !152, !"_ZTS16HexxagonMoveList", !173, null, void (%class.HexxagonMoveList*)* @_ZN16HexxagonMoveListC2Ev, null, !172, !198} ; [ DW_TAG_subprogram ] [line 46] [def] [HexxagonMoveList]
!223 = !{!"0x2e\00HexxagonMove\00HexxagonMove\00_ZN12HexxagonMoveC2Ev\0035\000\001\000\000\00256\000\0035", !152, !"_ZTS12HexxagonMove", !158, null, void (%class.HexxagonMove*)* @_ZN12HexxagonMoveC2Ev, null, !157, !198} ; [ DW_TAG_subprogram ] [line 35] [def] [HexxagonMove]
!224 = !{!"0x2e\00BitBoard64\00BitBoard64\00_ZN10BitBoard64C2Ejj\0035\000\001\000\000\00256\000\0035", !58, !"_ZTS10BitBoard64", !69, null, void (%class.BitBoard64*, i32, i32)* @_ZN10BitBoard64C2Ejj, null, !68, !198} ; [ DW_TAG_subprogram ] [line 35] [def] [BitBoard64]
!225 = !{!"0x2e\00BitBoard64\00BitBoard64\00_ZN10BitBoard64C2Ev\0034\000\001\000\000\00256\000\0034", !58, !"_ZTS10BitBoard64", !65, null, void (%class.BitBoard64*)* @_ZN10BitBoard64C2Ev, null, !64, !198} ; [ DW_TAG_subprogram ] [line 34] [def] [BitBoard64]
!226 = !{!"0x2e\00\00\00_GLOBAL__sub_I_hexxagonboard.cpp\000\001\001\000\000\0064\000\000", !1, !200, !227, null, void ()* @_GLOBAL__sub_I_hexxagonboard.cpp, null, null, !198} ; [ DW_TAG_subprogram ] [line 0] [local] [def]
!227 = !{!"0x15\00\000\000\000\000\000\000", null, null, null, !198, null, null, null} ; [ DW_TAG_subroutine_type ] [line 0, size 0, align 0, offset 0] [from ]
!228 = !{!229, !230, !232}
!229 = !{!"0x34\00__ioinit\00__ioinit\00_ZStL8__ioinit\0074\001\001", !44, !197, !"_ZTSNSt8ios_base4InitE", %"class.std::ios_base::Init"* @_ZStL8__ioinit, null} ; [ DW_TAG_variable ] [__ioinit] [line 74] [local] [def]
